ccopy_reg
_reconstructor
p0
(cmoveit_msgs.msg._RobotTrajectory
RobotTrajectory
p1
c__builtin__
object
p2
Ntp3
Rp4
(lp5
g0
(ctrajectory_msgs.msg._JointTrajectory
JointTrajectory
p6
g2
Ntp7
Rp8
(lp9
g0
(cstd_msgs.msg._Header
Header
p10
g2
Ntp11
Rp12
(lp13
I0
ag0
(cgenpy.rostime
Time
p14
g2
Ntp15
Rp16
(lp17
I0
aI0
abaS'/base'
p18
aba(lp19
S'right_s0'
p20
aS'right_s1'
p21
aS'right_e0'
p22
aS'right_e1'
p23
aS'right_w0'
p24
aS'right_w1'
p25
aS'right_w2'
p26
aa(lp27
g0
(ctrajectory_msgs.msg._JointTrajectoryPoint
JointTrajectoryPoint
p28
g2
Ntp29
Rp30
(lp31
(lp32
F0.06826214498291017
aF-0.9851991598937989
aF1.1293933537902834
aF1.9370342376892091
aF-0.6876068873840332
aF0.9813642079284669
aF0.5000777362792969
aa(lp33
a(lp34
ag0
(cgenpy.rostime
Duration
p35
g2
Ntp36
Rp37
(lp38
I0
aI0
ababag0
(g28
g2
Ntp39
Rp40
(lp41
(lp42
F0.06756330271774699
aF-0.9884439358574004
aF1.1273835102546497
aF1.9329412597563533
aF-0.6873553160736829
aF0.9826767631335933
aF0.5021821225150478
aa(lp43
a(lp44
ag0
(g35
g2
Ntp45
Rp46
(lp47
I0
aI95159177
ababag0
(g28
g2
Ntp48
Rp49
(lp50
(lp51
F0.06686446045258382
aF-0.9916887118210018
aF1.1253736667190157
aF1.9288482818234973
aF-0.6871037447633326
aF0.9839893183387196
aF0.5042865087507986
aa(lp52
a(lp53
ag0
(g35
g2
Ntp54
Rp55
(lp56
I0
aI147316991
ababag0
(g28
g2
Ntp57
Rp58
(lp59
(lp60
F0.06616561818742064
aF-0.9949334877846033
aF1.1233638231833818
aF1.9247553038906413
aF-0.6868521734529822
aF0.985301873543846
aF0.5063908949865495
aa(lp61
a(lp62
ag0
(g35
g2
Ntp63
Rp64
(lp65
I0
aI187477666
ababag0
(g28
g2
Ntp66
Rp67
(lp68
(lp69
F0.06546677592225747
aF-0.9981782637482048
aF1.1213539796477479
aF1.9206623259577853
aF-0.686600602142632
aF0.9866144287489724
aF0.5084952812223005
aa(lp70
a(lp71
ag0
(g35
g2
Ntp72
Rp73
(lp74
I0
aI222099468
ababag0
(g28
g2
Ntp75
Rp76
(lp77
(lp78
F0.0647679336570943
aF-1.0014230397118062
aF1.119344136112114
aF1.9165693480249293
aF-0.6863490308322817
aF0.9879269839540988
aF0.5105996674580514
aa(lp79
a(lp80
ag0
(g35
g2
Ntp81
Rp82
(lp83
I0
aI256721269
ababag0
(g28
g2
Ntp84
Rp85
(lp86
(lp87
F0.06406909139193112
aF-1.0046678156754079
aF1.11733429257648
aF1.9124763700920733
aF-0.6860974595219314
aF0.9892395391592252
aF0.5127040536938023
aa(lp88
a(lp89
ag0
(g35
g2
Ntp90
Rp91
(lp92
I0
aI296916106
ababag0
(g28
g2
Ntp93
Rp94
(lp95
(lp96
F0.06337024912676795
aF-1.0079125916390095
aF1.115324449040846
aF1.9083833921592173
aF-0.685845888211581
aF0.9905520943643517
aF0.5148084399295532
aa(lp97
a(lp98
ag0
(g35
g2
Ntp99
Rp100
(lp101
I0
aI347944207
ababag0
(g28
g2
Ntp102
Rp103
(lp104
(lp105
F0.06267140686160476
aF-1.0111573676026109
aF1.1133146055052123
aF1.9042904142263615
aF-0.6855943169012307
aF0.9918646495694781
aF0.5169128261653041
aa(lp106
a(lp107
ag0
(g35
g2
Ntp108
Rp109
(lp110
I0
aI406043290
ababag0
(g28
g2
Ntp111
Rp112
(lp113
(lp114
F0.06131761487227576
aF-1.0129426433307773
aF1.1079634165233943
aF1.8988728863460809
aF-0.6826273518900254
aF0.993636308823548
aF0.522366687311486
aa(lp115
a(lp116
ag0
(g35
g2
Ntp117
Rp118
(lp119
I0
aI490526303
ababag0
(g28
g2
Ntp120
Rp121
(lp122
(lp123
F0.05996382288294676
aF-1.0147279190589436
aF1.102612227541576
aF1.8934553584658
aF-0.67966038687882
aF0.995407968077618
aF0.527820548457668
aa(lp124
a(lp125
ag0
(g35
g2
Ntp126
Rp127
(lp128
I0
aI545680483
ababag0
(g28
g2
Ntp129
Rp130
(lp131
(lp132
F0.05861003089361776
aF-1.0165131947871098
aF1.0972610385597579
aF1.8880378305855192
aF-0.6766934218676147
aF0.997179627331688
aF0.53327440960385
aa(lp133
a(lp134
ag0
(g35
g2
Ntp135
Rp136
(lp137
I0
aI590245902
ababag0
(g28
g2
Ntp138
Rp139
(lp140
(lp141
F0.057256238904288756
aF-1.0182984705152762
aF1.0919098495779398
aF1.8826203027052384
aF-0.6737264568564094
aF0.998951286585758
aF0.5387282707500319
aa(lp142
a(lp143
ag0
(g35
g2
Ntp144
Rp145
(lp146
I0
aI628557184
ababag0
(g28
g2
Ntp147
Rp148
(lp149
(lp150
F0.05382601545379865
aF-1.0218103060985775
aF1.0780233762489293
aF1.8694579652779897
aF-0.665651391060152
aF1.0032669792367677
aF0.5528568034178156
aa(lp151
a(lp152
ag0
(g35
g2
Ntp153
Rp154
(lp155
I0
aI711310643
ababag0
(g28
g2
Ntp156
Rp157
(lp158
(lp159
F0.05039579200330854
aF-1.0253221416818785
aF1.064136902919919
aF1.8562956278507412
aF-0.6575763252638946
aF1.0075826718877772
aF0.5669853360855992
aa(lp160
a(lp161
ag0
(g35
g2
Ntp162
Rp163
(lp164
I0
aI779847692
ababag0
(g28
g2
Ntp165
Rp166
(lp167
(lp168
F0.046965568552818436
aF-1.0288339772651796
aF1.0502504295909088
aF1.8431332904234927
aF-0.6495012594676373
aF1.0118983645387867
aF0.5811138687533828
aa(lp169
a(lp170
ag0
(g35
g2
Ntp171
Rp172
(lp173
I0
aI840155033
ababag0
(g28
g2
Ntp174
Rp175
(lp176
(lp177
F0.04353534510232833
aF-1.0323458128484808
aF1.0363639562618983
aF1.829970952996244
aF-0.6414261936713799
aF1.0162140571897962
aF0.5952424014211664
aa(lp178
a(lp179
ag0
(g35
g2
Ntp180
Rp181
(lp182
I0
aI894750482
ababag0
(g28
g2
Ntp183
Rp184
(lp185
(lp186
F0.03595225872951602
aF-1.0393107681420515
aF1.0054069142385034
aF1.8013189964750596
aF-0.6231349263050183
aF1.0256178166346848
aF0.6267202771321533
aa(lp187
a(lp188
ag0
(g35
g2
Ntp189
Rp190
(lp191
I1
aI9406194
ababag0
(g28
g2
Ntp192
Rp193
(lp194
(lp195
F0.0283691723567037
aF-1.0462757234356221
aF0.9744498722151086
aF1.7726670399538753
aF-0.6048436589386568
aF1.0350215760795733
aF0.6581981528431402
aa(lp196
a(lp197
ag0
(g35
g2
Ntp198
Rp199
(lp200
I1
aI124061905
ababag0
(g28
g2
Ntp201
Rp202
(lp203
(lp204
F0.02078608598389138
aF-1.0532406787291928
aF0.9434928301917138
aF1.744015083432691
aF-0.5865523915722952
aF1.044425335524462
aF0.6896760285541271
aa(lp205
a(lp206
ag0
(g35
g2
Ntp207
Rp208
(lp209
I1
aI238717615
ababag0
(g28
g2
Ntp210
Rp211
(lp212
(lp213
F0.013202999611079066
aF-1.0602056340227635
aF0.9125357881683189
aF1.7153631269115066
aF-0.5682611242059337
aF1.0538290949693505
aF0.721153904265114
aa(lp214
a(lp215
ag0
(g35
g2
Ntp216
Rp217
(lp218
I1
aI353373327
ababag0
(g28
g2
Ntp219
Rp220
(lp221
(lp222
F0.005664038021937266
aF-1.0668602470411814
aF0.8816714856563393
aF1.6870284534082163
aF-0.5499276316425887
aF1.0631319113979618
aF0.7525311851364295
aa(lp223
a(lp224
ag0
(g35
g2
Ntp225
Rp226
(lp227
I1
aI467685559
ababag0
(g28
g2
Ntp228
Rp229
(lp230
(lp231
F-0.001874923567204534
aF-1.0735148600595994
aF0.8508071831443598
aF1.658693779904926
aF-0.5315941390792439
aF1.0724347278265731
aF0.7839084660077449
aa(lp232
a(lp233
ag0
(g35
g2
Ntp234
Rp235
(lp236
I1
aI581997790
ababag0
(g28
g2
Ntp237
Rp238
(lp239
(lp240
F-0.009413885156346334
aF-1.0801694730780174
aF0.8199428806323801
aF1.6303591064016356
aF-0.513260646515899
aF1.0817375442551844
aF0.8152857468790603
aa(lp241
a(lp242
ag0
(g35
g2
Ntp243
Rp244
(lp245
I1
aI696310022
ababag0
(g28
g2
Ntp246
Rp247
(lp248
(lp249
F-0.016952846745488134
aF-1.0868240860964355
aF0.7890785781204005
aF1.6020244328983453
aF-0.4949271539525541
aF1.0910403606837957
aF0.8466630277503757
aa(lp250
a(lp251
ag0
(g35
g2
Ntp252
Rp253
(lp254
I1
aI814086028
ababag0
(g28
g2
Ntp255
Rp256
(lp257
(lp258
F-0.020250695844966686
aF-1.0894048948542787
aF0.7754703233256359
aF1.5898139445247788
aF-0.4867254125653467
aF1.0950532242859734
aF0.8604897758991448
aa(lp259
a(lp260
ag0
(g35
g2
Ntp261
Rp262
(lp263
I1
aI874975859
ababag0
(g28
g2
Ntp264
Rp265
(lp266
(lp267
F-0.023548544944445235
aF-1.0919857036121217
aF0.7618620685308712
aF1.5776034561512122
aF-0.47852367117813926
aF1.0990660878881509
aF0.8743165240479139
aa(lp268
a(lp269
ag0
(g35
g2
Ntp270
Rp271
(lp272
I1
aI944377940
ababag0
(g28
g2
Ntp273
Rp274
(lp275
(lp276
F-0.026846394043923787
aF-1.0945665123699648
aF0.7482538137361066
aF1.5653929677776457
aF-0.47032192979093185
aF1.1030789514903283
aF0.8881432721966831
aa(lp277
a(lp278
ag0
(g35
g2
Ntp279
Rp280
(lp281
I2
aI29094913
ababag0
(g28
g2
Ntp282
Rp283
(lp284
(lp285
F-0.03014424314340234
aF-1.097147321127808
aF0.734645558941342
aF1.5531824794040792
aF-0.46212018840372443
aF1.107091815092506
aF0.9019700203454522
aa(lp286
a(lp287
ag0
(g35
g2
Ntp288
Rp289
(lp290
I2
aI149495856
ababag0
(g28
g2
Ntp291
Rp292
(lp293
(lp294
F-0.031321535998049266
aF-1.0976912277553637
aF0.7296653280051848
aF1.5490340835953744
aF-0.45898432260458577
aF1.1084597022814666
aF0.9070215021329482
aa(lp295
a(lp296
ag0
(g35
g2
Ntp297
Rp298
(lp299
I2
aI217941156
ababag0
(g28
g2
Ntp300
Rp301
(lp302
(lp303
F-0.0324988288526962
aF-1.0982351343829193
aF0.7246850970690277
aF1.54488568778667
aF-0.45584845680544706
aF1.1098275894704275
aF0.9120729839204441
aa(lp304
a(lp305
ag0
(g35
g2
Ntp306
Rp307
(lp308
I2
aI267832258
ababag0
(g28
g2
Ntp309
Rp310
(lp311
(lp312
F-0.033676121707343125
aF-1.098779041010475
aF0.7197048661328707
aF1.5407372919779654
aF-0.45271259100630834
aF1.1111954766593883
aF0.91712446570794
aa(lp313
a(lp314
ag0
(g35
g2
Ntp315
Rp316
(lp317
I2
aI309129115
ababag0
(g28
g2
Ntp318
Rp319
(lp320
(lp321
F-0.03485341456199005
aF-1.0993229476380308
aF0.7147246351967135
aF1.5365888961692606
aF-0.4495767252071697
aF1.112563363848349
aF0.9221759474954361
aa(lp322
a(lp323
ag0
(g35
g2
Ntp324
Rp325
(lp326
I2
aI345415118
ababag0
(g28
g2
Ntp327
Rp328
(lp329
(lp330
F-0.03620703074549282
aF-1.099801969017419
aF0.7089511118107705
aF1.5319008586285041
aF-0.4458905681429496
aF1.114111047978103
aF0.928028776096284
aa(lp331
a(lp332
ag0
(g35
g2
Ntp333
Rp334
(lp335
I2
aI383119816
ababag0
(g28
g2
Ntp336
Rp337
(lp338
(lp339
F-0.037560646928995585
aF-1.1002809903968074
aF0.7031775884248277
aF1.5272128210877474
aF-0.44220441107872954
aF1.1156587321078568
aF0.9338816046971319
aa(lp340
a(lp341
ag0
(g35
g2
Ntp342
Rp343
(lp344
I2
aI417594724
ababag0
(g28
g2
Ntp345
Rp346
(lp347
(lp348
F-0.03891426311249835
aF-1.1007600117761955
aF0.6974040650388847
aF1.5225247835469906
aF-0.4385182540145095
aF1.1172064162376105
aF0.9397344332979798
aa(lp349
a(lp350
ag0
(g35
g2
Ntp351
Rp352
(lp353
I2
aI449431721
ababag0
(g28
g2
Ntp354
Rp355
(lp356
(lp357
F-0.04026787929600112
aF-1.1012390331555837
aF0.6916305416529418
aF1.517836746006234
aF-0.4348320969502894
aF1.1187541003673644
aF0.9455872618988277
aa(lp358
a(lp359
ag0
(g35
g2
Ntp360
Rp361
(lp362
I2
aI479126666
ababag0
(g28
g2
Ntp363
Rp364
(lp365
(lp366
F-0.0433340827040263
aF-1.101843897623705
aF0.6783968466570716
aF1.5074853988886814
aF-0.4262176539911202
aF1.1221776364361125
aF0.9589920116999869
aa(lp367
a(lp368
ag0
(g35
g2
Ntp369
Rp370
(lp371
I2
aI540134777
ababag0
(g28
g2
Ntp372
Rp373
(lp374
(lp375
F-0.04640028611205148
aF-1.1024487620918264
aF0.6651631516612013
aF1.4971340517711287
aF-0.41760321103195097
aF1.1256011725048602
aF0.9723967615011462
aa(lp376
a(lp377
ag0
(g35
g2
Ntp378
Rp379
(lp380
I2
aI594817793
ababag0
(g28
g2
Ntp381
Rp382
(lp383
(lp384
F-0.04946648952007665
aF-1.1030536265599475
aF0.6519294566653311
aF1.486782704653576
aF-0.4089887680727817
aF1.129024708573608
aF0.9858015113023053
aa(lp385
a(lp386
ag0
(g35
g2
Ntp387
Rp388
(lp389
I2
aI644816654
ababag0
(g28
g2
Ntp390
Rp391
(lp392
(lp393
F-0.05253269292810183
aF-1.103658491028069
aF0.6386957616694608
aF1.4764313575360233
aF-0.4003743251136125
aF1.1324482446423558
aF0.9992062611034646
aa(lp394
a(lp395
ag0
(g35
g2
Ntp396
Rp397
(lp398
I2
aI693830339
ababag0
(g28
g2
Ntp399
Rp400
(lp401
(lp402
F-0.05902407078517183
aF-1.1045150416736564
aF0.610541723453736
aF1.4547533912648787
aF-0.38190331036454495
aF1.1396234845890916
aF1.0277148533052465
aa(lp403
a(lp404
ag0
(g35
g2
Ntp405
Rp406
(lp407
I2
aI798104555
ababag0
(g28
g2
Ntp408
Rp409
(lp410
(lp411
F-0.06551544864224183
aF-1.105371592319244
aF0.5823876852380112
aF1.433075424993734
aF-0.3634322956154774
aF1.1467987245358273
aF1.0562234455070283
aa(lp412
a(lp413
ag0
(g35
g2
Ntp414
Rp415
(lp416
I2
aI902378771
ababag0
(g28
g2
Ntp417
Rp418
(lp419
(lp420
F-0.07200682649931184
aF-1.1062281429648315
aF0.5542336470222864
aF1.4113974587225895
aF-0.34496128086640987
aF1.153973964482563
aF1.08473203770881
aa(lp421
a(lp422
ag0
(g35
g2
Ntp423
Rp424
(lp425
I3
aI6652986
ababag0
(g28
g2
Ntp426
Rp427
(lp428
(lp429
F-0.07849820435638184
aF-1.107084693610419
aF0.5260796088065616
aF1.3897194924514449
aF-0.32649026611734233
aF1.1611492044292988
aF1.113240629910592
aa(lp430
a(lp431
ag0
(g35
g2
Ntp432
Rp433
(lp434
I3
aI120927201
ababag0
(g28
g2
Ntp435
Rp436
(lp437
(lp438
F-0.09306229621231502
aF-1.0821699718545417
aF0.45422053604750035
aF1.3560579826745816
aF-0.2702625347134051
aF1.1726500426940158
aF1.18541530592324
aa(lp439
a(lp440
ag0
(g35
g2
Ntp441
Rp442
(lp443
I3
aI397071915
ababag0
(g28
g2
Ntp444
Rp445
(lp446
(lp447
F-0.1076263880682482
aF-1.0572552500986645
aF0.3823614632884392
aF1.3223964728977182
aF-0.2140348033094679
aF1.1841508809587327
aF1.2575899819358882
aa(lp448
a(lp449
ag0
(g35
g2
Ntp450
Rp451
(lp452
I3
aI663216630
ababag0
(g28
g2
Ntp453
Rp454
(lp455
(lp456
F-0.12537054331135178
aF-1.0193919705976882
aF0.29237995906267344
aF1.2855748461563934
aF-0.14139285652557038
aF1.1968765924129432
aF1.3478217392538139
aa(lp457
a(lp458
ag0
(g35
g2
Ntp459
Rp460
(lp461
I3
aI996481460
ababag0
(g28
g2
Ntp462
Rp463
(lp464
(lp465
F-0.14311469855445536
aF-0.981528691096712
aF0.20239845483690774
aF1.2487532194150688
aF-0.06875090974167289
aF1.2096023038671535
aF1.4380534965717395
aa(lp466
a(lp467
ag0
(g35
g2
Ntp468
Rp469
(lp470
I4
aI329746291
ababag0
(g28
g2
Ntp471
Rp472
(lp473
(lp474
F-0.16721898057189968
aF-0.9177682961055378
aF0.07617208767773297
aF1.2056113587448214
aF0.03671946780214515
aF1.2247777617003512
aF1.56439941650022
aa(lp475
a(lp476
ag0
(g35
g2
Ntp477
Rp478
(lp479
I4
aI797251354
ababag0
(g28
g2
Ntp480
Rp481
(lp482
(lp483
F-0.191323262589344
aF-0.8540079011143636
aF-0.05005427948144181
aF1.162469498074574
aF0.14218984534596318
aF1.239953219533549
aF1.6907453364287006
aa(lp484
a(lp485
ag0
(g35
g2
Ntp486
Rp487
(lp488
I5
aI264756418
ababag0
(g28
g2
Ntp489
Rp490
(lp491
(lp492
F-0.21860760799395873
aF-0.7772989483780905
aF-0.1944030781073211
aF1.1161675204398653
aF0.26407443826974153
aF1.2563535505562402
aF1.8351483376624587
aa(lp493
a(lp494
ag0
(g35
g2
Ntp495
Rp496
(lp497
I5
aI799381598
ababag0
(g28
g2
Ntp498
Rp499
(lp500
(lp501
F-0.24589195339857342
aF-0.7005899956418173
aF-0.3387518767332004
aF1.0698655428051564
aF0.3859590311935198
aF1.2727538815789314
aF1.979551338896217
aa(lp502
a(lp503
ag0
(g35
g2
Ntp504
Rp505
(lp506
I6
aI334006778
ababag0
(g28
g2
Ntp507
Rp508
(lp509
(lp510
F-0.2795364255775289
aF-0.5979839274153462
aF-0.5193455382924888
aF1.017243331241525
aF0.5406720548772186
aF1.2916039589806099
aF2.16006850274053
aa(lp511
a(lp512
ag0
(g35
g2
Ntp513
Rp514
(lp515
I7
aI2872190
ababag0
(g28
g2
Ntp516
Rp517
(lp518
(lp519
F-0.3131808977564844
aF-0.49537785918887506
aF-0.699939199851777
aF0.9646211196778934
aF0.6953850785609175
aF1.3104540363822883
aF2.3405856665848432
aa(lp520
a(lp521
ag0
(g35
g2
Ntp522
Rp523
(lp524
I7
aI671737603
ababag0
(g28
g2
Ntp525
Rp526
(lp527
(lp528
F-0.3468253699354399
aF-0.3927717909624039
aF-0.8805328614110653
aF0.9119989081142619
aF0.8500981022446163
aF1.3293041137839667
aF2.5211028304291565
aa(lp529
a(lp530
ag0
(g35
g2
Ntp531
Rp532
(lp533
I8
aI340603016
ababag0
(g28
g2
Ntp534
Rp535
(lp536
(lp537
F-0.38046984211439533
aF-0.2901657227359328
aF-1.0611265229703537
aF0.8593766965506304
aF1.0048111259283152
aF1.348154191185645
aF2.7016199942734693
aa(lp538
a(lp539
ag0
(g35
g2
Ntp540
Rp541
(lp542
I9
aI189468430
ababaabag0
(cmoveit_msgs.msg._MultiDOFJointTrajectory
MultiDOFJointTrajectory
p543
g2
Ntp544
Rp545
(lp546
g0
(g10
g2
Ntp547
Rp548
(lp549
I0
ag0
(g14
g2
Ntp550
Rp551
(lp552
I0
aI0
abaS''
p553
abag19
a(lp554
abab.