ccopy_reg
_reconstructor
p0
(cmoveit_msgs.msg._RobotTrajectory
RobotTrajectory
p1
c__builtin__
object
p2
Ntp3
Rp4
(lp5
g0
(ctrajectory_msgs.msg._JointTrajectory
JointTrajectory
p6
g2
Ntp7
Rp8
(lp9
g0
(cstd_msgs.msg._Header
Header
p10
g2
Ntp11
Rp12
(lp13
I0
ag0
(cgenpy.rostime
Time
p14
g2
Ntp15
Rp16
(lp17
I0
aI0
abaS'/base'
p18
aba(lp19
S'left_s0'
p20
aS'left_s1'
p21
aS'left_e0'
p22
aS'left_e1'
p23
aS'left_w0'
p24
aS'left_w1'
p25
aS'left_w2'
p26
aa(lp27
g0
(ctrajectory_msgs.msg._JointTrajectoryPoint
JointTrajectoryPoint
p28
g2
Ntp29
Rp30
(lp31
(lp32
F-0.0732475825378418
aF-1.0235486795471191
aF-1.181548700518799
aF1.9355002569030764
aF0.6707330987365723
aF1.0331360594604493
aF-0.5023787074584961
aa(lp33
a(lp34
ag0
(cgenpy.rostime
Duration
p35
g2
Ntp36
Rp37
(lp38
I0
aI0
ababag0
(g28
g2
Ntp39
Rp40
(lp41
(lp42
F-0.04166131412768397
aF-0.9907098561222865
aF-1.1002925921578337
aF1.8951940236518106
aF0.6915683883310413
aF0.9618257481077792
aF-0.5133029933859934
aa(lp43
a(lp44
ag0
(g35
g2
Ntp45
Rp46
(lp47
I0
aI400948549
ababag0
(g28
g2
Ntp48
Rp49
(lp50
(lp51
F-0.01007504571752614
aF-0.9578710326974538
aF-1.0190364837968684
aF1.8548877904005447
aF0.7124036779255104
aF0.8905154367551091
aF-0.5242272793134908
aa(lp52
a(lp53
ag0
(g35
g2
Ntp54
Rp55
(lp56
I0
aI701897098
ababag0
(g28
g2
Ntp57
Rp58
(lp59
(lp60
F0.021511222692631695
aF-0.9250322092726212
aF-0.9377803754359031
aF1.814581557149279
aF0.7332389675199794
aF0.819205125402439
aF-0.5351515652409881
aa(lp61
a(lp62
ag0
(g35
g2
Ntp63
Rp64
(lp65
I1
aI2845648
ababag0
(g28
g2
Ntp66
Rp67
(lp68
(lp69
F0.053097491102789524
aF-0.8921933858477885
aF-0.8565242670749378
aF1.7742753238980131
aF0.7540742571144485
aF0.7478948140497689
aF-0.5460758511684853
aa(lp70
a(lp71
ag0
(g35
g2
Ntp72
Rp73
(lp74
I1
aI303794197
ababag0
(g28
g2
Ntp75
Rp76
(lp77
(lp78
F0.08468375951294735
aF-0.8593545624229558
aF-0.7752681587139725
aF1.7339690906467473
aF0.7749095467089175
aF0.6765845026970988
aF-0.5570001370959826
aa(lp79
a(lp80
ag0
(g35
g2
Ntp81
Rp82
(lp83
I1
aI604742747
ababag0
(g28
g2
Ntp84
Rp85
(lp86
(lp87
F0.1162700279231052
aF-0.8265157389981231
aF-0.6940120503530072
aF1.6936628573954815
aF0.7957448363033867
aF0.6052741913444287
aF-0.56792442302348
aa(lp88
a(lp89
ag0
(g35
g2
Ntp90
Rp91
(lp92
I1
aI905691296
ababag0
(g28
g2
Ntp93
Rp94
(lp95
(lp96
F0.14785629633326303
aF-0.7936769155732905
aF-0.6127559419920419
aF1.6533566241442155
aF0.8165801258978557
aF0.5339638799917586
aF-0.5788487089509773
aa(lp97
a(lp98
ag0
(g35
g2
Ntp99
Rp100
(lp101
I2
aI206639845
ababag0
(g28
g2
Ntp102
Rp103
(lp104
(lp105
F0.17944256474342085
aF-0.7608380921484579
aF-0.5314998336310767
aF1.6130503908929497
aF0.8374154154923248
aF0.4626535686390886
aF-0.5897729948784746
aa(lp106
a(lp107
ag0
(g35
g2
Ntp108
Rp109
(lp110
I2
aI507588394
ababag0
(g28
g2
Ntp111
Rp112
(lp113
(lp114
F0.21102883315357868
aF-0.7279992687236252
aF-0.45024372527011136
aF1.572744157641684
aF0.8582507050867938
aF0.3913432572864185
aF-0.6006972808059718
aa(lp115
a(lp116
ag0
(g35
g2
Ntp117
Rp118
(lp119
I2
aI808536945
ababag0
(g28
g2
Ntp120
Rp121
(lp122
(lp123
F0.2426151015637365
aF-0.6951604452987925
aF-0.36898761690914605
aF1.532437924390418
aF0.8790859946812628
aF0.32003294593374837
aF-0.6116215667334692
aa(lp124
a(lp125
ag0
(g35
g2
Ntp126
Rp127
(lp128
I3
aI109485493
ababag0
(g28
g2
Ntp129
Rp130
(lp131
(lp132
F0.2742013699738943
aF-0.6623216218739598
aF-0.28773150854818075
aF1.4921316911391522
aF0.8999212842757319
aF0.24872263458107827
aF-0.6225458526609665
aa(lp133
a(lp134
ag0
(g35
g2
Ntp135
Rp136
(lp137
I3
aI410434044
ababag0
(g28
g2
Ntp138
Rp139
(lp140
(lp141
F0.3057876383840522
aF-0.6294827984491271
aF-0.20647540018721539
aF1.4518254578878864
aF0.920756573870201
aF0.17741232322840814
aF-0.6334701385884638
aa(lp142
a(lp143
ag0
(g35
g2
Ntp144
Rp145
(lp146
I3
aI711382593
ababag0
(g28
g2
Ntp147
Rp148
(lp149
(lp150
F0.33737390679421003
aF-0.5966439750242944
aF-0.12521929182625008
aF1.4115192246366206
aF0.94159186346467
aF0.10610201187573803
aF-0.6443944245159611
aa(lp151
a(lp152
ag0
(g35
g2
Ntp153
Rp154
(lp155
I4
aI12331142
ababag0
(g28
g2
Ntp156
Rp157
(lp158
(lp159
F0.36896017520436786
aF-0.5638051515994619
aF-0.043963183465284744
aF1.3712129913853548
aF0.9624271530591392
aF0.03479170052306792
aF-0.6553187104434585
aa(lp160
a(lp161
ag0
(g35
g2
Ntp162
Rp163
(lp164
I4
aI313279692
ababag0
(g28
g2
Ntp165
Rp166
(lp167
(lp168
F0.4005464436145257
aF-0.5309663281746292
aF0.03729292489568043
aF1.330906758134089
aF0.9832624426536082
aF-0.03651861082960207
aF-0.6662429963709557
aa(lp169
a(lp170
ag0
(g35
g2
Ntp171
Rp172
(lp173
I4
aI614228242
ababag0
(g28
g2
Ntp174
Rp175
(lp176
(lp177
F0.4321327120246835
aF-0.49812750474979656
aF0.11854903325664576
aF1.2906005248828232
aF1.0040977322480773
aF-0.10782892218227218
aF-0.677167282298453
aa(lp178
a(lp179
ag0
(g35
g2
Ntp180
Rp181
(lp182
I4
aI915176791
ababag0
(g28
g2
Ntp183
Rp184
(lp185
(lp186
F0.46371898043484133
aF-0.46528868132496387
aF0.1998051416176111
aF1.2502942916315574
aF1.0249330218425463
aF-0.1791392335349423
aF-0.6880915682259503
aa(lp187
a(lp188
ag0
(g35
g2
Ntp189
Rp190
(lp191
I5
aI216125340
ababag0
(g28
g2
Ntp192
Rp193
(lp194
(lp195
F0.49530524884499916
aF-0.43244985790013124
aF0.28106124997857623
aF1.2099880583802916
aF1.0457683114370153
aF-0.2504495448876123
aF-0.6990158541534476
aa(lp196
a(lp197
ag0
(g35
g2
Ntp198
Rp199
(lp200
I5
aI517073889
ababag0
(g28
g2
Ntp201
Rp202
(lp203
(lp204
F0.5268915172551569
aF-0.39961103447529855
aF0.3623173583395416
aF1.1696818251290257
aF1.0666036010314843
aF-0.3217598562402824
aF-0.709940140080945
aa(lp205
a(lp206
ag0
(g35
g2
Ntp207
Rp208
(lp209
I5
aI818022440
ababag0
(g28
g2
Ntp210
Rp211
(lp212
(lp213
F0.5584777856653148
aF-0.3667722110504659
aF0.4435734667005069
aF1.12937559187776
aF1.0874388906259533
aF-0.3930701675929525
aF-0.7208644260084422
aa(lp214
a(lp215
ag0
(g35
g2
Ntp216
Rp217
(lp218
I6
aI118970989
ababag0
(g28
g2
Ntp219
Rp220
(lp221
(lp222
F0.5900640540754727
aF-0.33393338762563324
aF0.5248295750614722
aF1.0890693586264941
aF1.1082741802204226
aF-0.4643804789456226
aF-0.7317887119359395
aa(lp223
a(lp224
ag0
(g35
g2
Ntp225
Rp226
(lp227
I6
aI419919539
ababag0
(g28
g2
Ntp228
Rp229
(lp230
(lp231
F0.6216503224856305
aF-0.30109456420080055
aF0.6060856834224375
aF1.0487631253752283
aF1.1291094698148916
aF-0.5356907902982927
aF-0.7427129978634369
aa(lp232
a(lp233
ag0
(g35
g2
Ntp234
Rp235
(lp236
I6
aI720868088
ababag0
(g28
g2
Ntp237
Rp238
(lp239
(lp240
F0.6532365908957883
aF-0.26825574077596787
aF0.6873417917834029
aF1.0084568921239623
aF1.1499447594093606
aF-0.6070011016509629
aF-0.7536372837909342
aa(lp241
a(lp242
ag0
(g35
g2
Ntp243
Rp244
(lp245
I7
aI21816637
ababag0
(g28
g2
Ntp246
Rp247
(lp248
(lp249
F0.6848228593059462
aF-0.2354169173511352
aF0.7685979001443682
aF0.9681506588726965
aF1.1707800490038298
aF-0.678311413003633
aF-0.7645615697184315
aa(lp250
a(lp251
ag0
(g35
g2
Ntp252
Rp253
(lp254
I7
aI322765186
ababag0
(g28
g2
Ntp255
Rp256
(lp257
(lp258
F0.716409127716104
aF-0.20257809392630252
aF0.8498540085053335
aF0.9278444256214307
aF1.1916153385982988
aF-0.7496217243563031
aF-0.7754858556459288
aa(lp259
a(lp260
ag0
(g35
g2
Ntp261
Rp262
(lp263
I7
aI623713737
ababag0
(g28
g2
Ntp264
Rp265
(lp266
(lp267
F0.7479953961262619
aF-0.16973927050146986
aF0.9311101168662989
aF0.8875381923701648
aF1.2124506281927678
aF-0.8209320357089732
aF-0.7864101415734261
aa(lp268
a(lp269
ag0
(g35
g2
Ntp270
Rp271
(lp272
I7
aI924662286
ababag0
(g28
g2
Ntp273
Rp274
(lp275
(lp276
F0.7795816645364197
aF-0.13690044707663718
aF1.0123662252272643
aF0.847231959118899
aF1.2332859177872368
aF-0.8922423470616433
aF-0.7973344275009234
aa(lp277
a(lp278
ag0
(g35
g2
Ntp279
Rp280
(lp281
I8
aI225610835
ababag0
(g28
g2
Ntp282
Rp283
(lp284
(lp285
F0.8111679329465775
aF-0.1040616236518045
aF1.0936223335882296
aF0.8069257258676331
aF1.254121207381706
aF-0.9635526584143135
aF-0.8082587134284207
aa(lp286
a(lp287
ag0
(g35
g2
Ntp288
Rp289
(lp290
I8
aI526559385
ababag0
(g28
g2
Ntp291
Rp292
(lp293
(lp294
F0.8427542013567354
aF-0.07122280022697183
aF1.1748784419491949
aF0.7666194926163673
aF1.274956496976175
aF-1.0348629697669836
aF-0.8191829993559181
aa(lp295
a(lp296
ag0
(g35
g2
Ntp297
Rp298
(lp299
I8
aI827507934
ababag0
(g28
g2
Ntp300
Rp301
(lp302
(lp303
F0.8743404697668932
aF-0.038383976802139286
aF1.25613455031016
aF0.7263132593651016
aF1.295791786570644
aF-1.1061732811196534
aF-0.8301072852834154
aa(lp304
a(lp305
ag0
(g35
g2
Ntp306
Rp307
(lp308
I9
aI128456484
ababag0
(g28
g2
Ntp309
Rp310
(lp311
(lp312
F0.9059267381770509
aF-0.00554515337730661
aF1.3373906586711253
aF0.6860070261138358
aF1.316627076165113
aF-1.1774835924723235
aF-0.8410315712109127
aa(lp313
a(lp314
ag0
(g35
g2
Ntp315
Rp316
(lp317
I9
aI429405034
ababag0
(g28
g2
Ntp318
Rp319
(lp320
(lp321
F0.9375130065872088
aF0.027293670047526065
aF1.4186467670320906
aF0.64570079286257
aF1.337462365759582
aF-1.2487939038249936
aF-0.8519558571384099
aa(lp322
a(lp323
ag0
(g35
g2
Ntp324
Rp325
(lp326
I9
aI730353582
ababag0
(g28
g2
Ntp327
Rp328
(lp329
(lp330
F0.9690992749973667
aF0.06013249347235874
aF1.499902875393056
aF0.6053945596113042
aF1.3582976553540511
aF-1.3201042151776639
aF-0.8628801430659072
aa(lp331
a(lp332
ag0
(g35
g2
Ntp333
Rp334
(lp335
I10
aI31302133
ababag0
(g28
g2
Ntp336
Rp337
(lp338
(lp339
F1.0006855434075246
aF0.09297131689719142
aF1.5811589837540212
aF0.5650883263600383
aF1.3791329449485203
aF-1.391414526530334
aF-0.8738044289934046
aa(lp340
a(lp341
ag0
(g35
g2
Ntp342
Rp343
(lp344
I10
aI332250681
ababag0
(g28
g2
Ntp345
Rp346
(lp347
(lp348
F1.0322718118176823
aF0.1258101403220241
aF1.6624150921149865
aF0.5247820931087724
aF1.3999682345429894
aF-1.462724837883004
aF-0.8847287149209019
aa(lp349
a(lp350
ag0
(g35
g2
Ntp351
Rp352
(lp353
I10
aI903199231
ababaabag0
(cmoveit_msgs.msg._MultiDOFJointTrajectory
MultiDOFJointTrajectory
p354
g2
Ntp355
Rp356
(lp357
g0
(g10
g2
Ntp358
Rp359
(lp360
I0
ag0
(g14
g2
Ntp361
Rp362
(lp363
I0
aI0
abaS''
p364
abag19
a(lp365
abab.