ccopy_reg
_reconstructor
p0
(cmoveit_msgs.msg._RobotTrajectory
RobotTrajectory
p1
c__builtin__
object
p2
Ntp3
Rp4
(lp5
g0
(ctrajectory_msgs.msg._JointTrajectory
JointTrajectory
p6
g2
Ntp7
Rp8
(lp9
g0
(cstd_msgs.msg._Header
Header
p10
g2
Ntp11
Rp12
(lp13
I0
ag0
(cgenpy.rostime
Time
p14
g2
Ntp15
Rp16
(lp17
I0
aI0
abaS'/base'
p18
aba(lp19
S'right_s0'
p20
aS'right_s1'
p21
aS'right_e0'
p22
aS'right_e1'
p23
aS'right_w0'
p24
aS'right_w1'
p25
aS'right_w2'
p26
aa(lp27
g0
(ctrajectory_msgs.msg._JointTrajectoryPoint
JointTrajectoryPoint
p28
g2
Ntp29
Rp30
(lp31
(lp32
F-0.15214169996167146
aF-0.5015675300154524
aF-1.1112767583238332
aF1.5126923919352098
aF1.0285835869868059
aF1.1641152065946148
aF2.388311968679462
aa(lp33
a(lp34
ag0
(cgenpy.rostime
Duration
p35
g2
Ntp36
Rp37
(lp38
I0
aI0
ababag0
(g28
g2
Ntp39
Rp40
(lp41
(lp42
F-0.1544519446286153
aF-0.4931941082893514
aF-1.103091803809753
aF1.5147248814729806
aF1.0356188850321149
aF1.153681471080502
aF2.3849674427025076
aa(lp43
a(lp44
ag0
(g35
g2
Ntp45
Rp46
(lp47
I0
aI200000000
ababag0
(g28
g2
Ntp48
Rp49
(lp50
(lp51
F-0.1568415119421576
aF-0.4847242294579037
aF-1.0948607115648206
aF1.5164251327930043
aF1.0426689679679506
aF1.143336530181985
aF2.381696406705445
aa(lp52
a(lp53
ag0
(g35
g2
Ntp54
Rp55
(lp56
I0
aI400000000
ababag0
(g28
g2
Ntp57
Rp58
(lp59
(lp60
F-0.15930696751094028
aF-0.47615719834890513
aF-1.086589341061583
aF1.5177924669896452
aF1.0497278344917977
aF1.133080463990466
aF2.378501706422071
aa(lp61
a(lp62
ag0
(g35
g2
Ntp63
Rp64
(lp65
I0
aI600000000
ababag0
(g28
g2
Ntp66
Rp67
(lp68
(lp69
F-0.16184495528717674
aF-0.46749228361709794
aF-1.0782835755493947
aF1.5188261430453733
aF1.0567894128134856
aF1.1229133954133652
aF2.3753863434841644
aa(lp70
a(lp71
ag0
(g35
g2
Ntp72
Rp73
(lp74
I0
aI800000002
ababag0
(g28
g2
Ntp75
Rp76
(lp77
(lp78
F-0.1644521961322675
aF-0.4587287175950379
aF-1.0699493197148422
aF1.5195253595472804
aF1.063847562163404
aF1.1128354903494522
aF2.3723534769277745
aa(lp79
a(lp80
ag0
(g35
g2
Ntp81
Rp82
(lp83
I1
aI1
ababag0
(g28
g2
Ntp84
Rp85
(lp86
(lp87
F-0.16712548655919182
aF-0.4498656959221076
aF-1.061592497326209
aF1.5198892558006492
aF1.0708960746583753
aF1.1028469581091254
aF2.3694064249831146
aa(lp88
a(lp89
ag0
(g35
g2
Ntp90
Rp91
(lp92
I1
aI200000001
ababag0
(g28
g2
Ntp93
Rp94
(lp95
(lp96
F-0.16986169764243603
aF-0.4409023769453218
aF-1.053219048900479
aF1.519916912333843
aF1.0779286774979286
aF1.0929480520812707
aF2.366548667149297
aa(lp97
a(lp98
ag0
(g35
g2
Ntp99
Rp100
(lp101
I1
aI400000001
ababag0
(g28
g2
Ntp102
Rp103
(lp104
(lp105
F-0.17265777408767044
aF-0.4318378808848059
aF-1.0448349294330899
aF1.5196073507864003
aF1.0849390354640402
aF1.083139070648678
aF2.3637838465568977
aa(lp106
a(lp107
ag0
(g35
g2
Ntp108
Rp109
(lp110
I1
aI600000001
ababag0
(g28
g2
Ntp111
Rp112
(lp113
(lp114
F-0.17551073345484552
aF-0.4226712887560839
aF-1.0364461062323085
aF1.518959533169921
aF1.0919207536978206
aF1.0734203583543125
aF2.3611157726230614
aa(lp115
a(lp116
ag0
(g35
g2
Ntp117
Rp118
(lp119
I1
aI800000001
ababag0
(g28
g2
Ntp120
Rp121
(lp122
(lp123
F-0.17841766552996546
aF-0.4134016410405551
aF-1.028058556901668
aF1.5179723604889304
aF1.098867380727168
aF1.0637923073209887
aF2.358548424005493
aa(lp124
a(lp125
ag0
(g35
g2
Ntp126
Rp127
(lp128
I2
aI1
ababag0
(g28
g2
Ntp129
Rp130
(lp131
(lp132
F-0.18137573184241823
aF-0.40402793609480603
aF-1.0196782675154117
aF1.5166446707065386
aF1.1057724117200696
aF1.0542553589272308
aF2.356085951863355
aa(lp133
a(lp134
ag0
(g35
g2
Ntp135
Rp136
(lp137
I2
aI200000000
ababag0
(g28
g2
Ntp138
Rp139
(lp140
(lp141
F-0.18438216532656437
aF-0.39454912828862565
aF-1.0113112310332877
aF1.5149752360371058
aF1.112629291939004
aF1.0448100057422713
aF2.353732683434729
aa(lp142
a(lp143
ag0
(g35
g2
Ntp144
Rp145
(lp146
I2
aI400000000
ababag0
(g28
g2
Ntp147
Rp148
(lp149
(lp150
F-0.18743427012821257
aF-0.38496412586084583
aF-1.0029634460023813
aF1.5129627595454667
aF1.119431420372827
aF1.0354567937232766
aF2.3514931259419996
aa(lp151
a(lp152
ag0
(g35
g2
Ntp153
Rp154
(lp155
I2
aI600000000
ababag0
(g28
g2
Ntp156
Rp157
(lp158
(lp159
F-0.19052942155879546
aF-0.37527178848130205
aF-0.9946409155949171
aF1.5106058710292651
aF1.126172153523527
aF1.026196324677962
aF2.3493719708382788
aa(lp160
a(lp161
ag0
(g35
g2
Ntp162
Rp163
(lp164
I2
aI800000000
ababag0
(g28
g2
Ntp165
Rp166
(lp167
(lp168
F-0.1936650742492676
aF-0.3654709222961426
aF-0.9863496454833985
aF1.5079031127685547
aF1.132844810559082
aF1.0170292612060547
aF2.3473740979797366
aa(lp169
a(lp170
ag0
(g35
g2
Ntp171
Rp172
(lp173
I3
aI0
ababaabag0
(cmoveit_msgs.msg._MultiDOFJointTrajectory
MultiDOFJointTrajectory
p174
g2
Ntp175
Rp176
(lp177
g0
(g10
g2
Ntp178
Rp179
(lp180
I0
ag0
(g14
g2
Ntp181
Rp182
(lp183
I0
aI0
abaS''
p184
abag19
a(lp185
abab.