ccopy_reg
_reconstructor
p0
(cmoveit_msgs.msg._RobotTrajectory
RobotTrajectory
p1
c__builtin__
object
p2
Ntp3
Rp4
(lp5
g0
(ctrajectory_msgs.msg._JointTrajectory
JointTrajectory
p6
g2
Ntp7
Rp8
(lp9
g0
(cstd_msgs.msg._Header
Header
p10
g2
Ntp11
Rp12
(lp13
I0
ag0
(cgenpy.rostime
Time
p14
g2
Ntp15
Rp16
(lp17
I0
aI0
abaS'/base'
p18
aba(lp19
S'left_s0'
p20
aS'left_s1'
p21
aS'left_e0'
p22
aS'left_e1'
p23
aS'left_w0'
p24
aS'left_w1'
p25
aS'left_w2'
p26
aa(lp27
g0
(ctrajectory_msgs.msg._JointTrajectoryPoint
JointTrajectoryPoint
p28
g2
Ntp29
Rp30
(lp31
(lp32
F-0.07439806812744142
aF-1.012043823651123
aF-1.180014719732666
aF1.9316653049377444
aF0.6703496035400391
aF1.0377380018188478
aF-0.5027622026550294
aa(lp33
a(lp34
ag0
(cgenpy.rostime
Duration
p35
g2
Ntp36
Rp37
(lp38
I0
aI0
ababag0
(g28
g2
Ntp39
Rp40
(lp41
(lp42
F-0.05051507803599703
aF-0.9998079614365069
aF-1.0696034054299397
aF1.8935403761999525
aF0.705778873733433
aF1.0209611872698767
aF-0.48027410481497557
aa(lp43
a(lp44
ag0
(g35
g2
Ntp45
Rp46
(lp47
I0
aI468930793
ababag0
(g28
g2
Ntp48
Rp49
(lp50
(lp51
F-0.026632087944552647
aF-0.9875720992218906
aF-0.9591920911272136
aF1.855415447462161
aF0.7412081439268267
aF1.0041843727209057
aF-0.4577860069749218
aa(lp52
a(lp53
ag0
(g35
g2
Ntp54
Rp55
(lp56
I0
aI877861587
ababag0
(g28
g2
Ntp57
Rp58
(lp59
(lp60
F-0.002749097853108262
aF-0.9753362370072743
aF-0.8487807768244873
aF1.817290518724369
aF0.7766374141202204
aF0.9874075581719347
aF-0.43529790913486793
aa(lp61
a(lp62
ag0
(g35
g2
Ntp63
Rp64
(lp65
I1
aI286792380
ababag0
(g28
g2
Ntp66
Rp67
(lp68
(lp69
F0.021133892238336123
aF-0.9631003747926581
aF-0.738369462521761
aF1.7791655899865773
aF0.8120666843136142
aF0.9706307436229636
aF-0.41280981129481414
aa(lp70
a(lp71
ag0
(g35
g2
Ntp72
Rp73
(lp74
I1
aI695723174
ababag0
(g28
g2
Ntp75
Rp76
(lp77
(lp78
F0.04501688232978051
aF-0.9508645125780418
aF-0.6279581482190348
aF1.7410406612487854
aF0.8474959545070079
aF0.9538539290739926
aF-0.39032171345476036
aa(lp79
a(lp80
ag0
(g35
g2
Ntp81
Rp82
(lp83
I2
aI104653968
ababag0
(g28
g2
Ntp84
Rp85
(lp86
(lp87
F0.06889987242122489
aF-0.9386286503634256
aF-0.5175468339163085
aF1.7029157325109936
aF0.8829252247004016
aF0.9370771145250216
aF-0.3678336156147065
aa(lp88
a(lp89
ag0
(g35
g2
Ntp90
Rp91
(lp92
I2
aI513584762
ababag0
(g28
g2
Ntp93
Rp94
(lp95
(lp96
F0.09278286251266928
aF-0.9263927881488092
aF-0.4071355196135823
aF1.6647908037732018
aF0.9183544948937954
aF0.9203002999760506
aF-0.3453455177746527
aa(lp97
a(lp98
ag0
(g35
g2
Ntp99
Rp100
(lp101
I2
aI922515554
ababag0
(g28
g2
Ntp102
Rp103
(lp104
(lp105
F0.11666585260411366
aF-0.914156925934193
aF-0.296724205310856
aF1.62666587503541
aF0.9537837650871891
aF0.9035234854270795
aF-0.32285741993459893
aa(lp106
a(lp107
ag0
(g35
g2
Ntp108
Rp109
(lp110
I3
aI331446349
ababag0
(g28
g2
Ntp111
Rp112
(lp113
(lp114
F0.1391726604313238
aF-0.901003687406793
aF-0.1946599839715548
aF1.592210585041861
aF0.9860027476139752
aF0.8837619587224692
aF-0.3028757259567502
aa(lp115
a(lp116
ag0
(g35
g2
Ntp117
Rp118
(lp119
I3
aI709461983
ababag0
(g28
g2
Ntp120
Rp121
(lp122
(lp123
F0.16167946825853396
aF-0.8878504488793932
aF-0.09259576263225357
aF1.5577552950483122
aF1.0182217301407612
aF0.8640004320178589
aF-0.2828940319789015
aa(lp124
a(lp125
ag0
(g35
g2
Ntp126
Rp127
(lp128
I4
aI87477618
ababag0
(g28
g2
Ntp129
Rp130
(lp131
(lp132
F0.18418627608574412
aF-0.8746972103519933
aF0.009468458707047663
aF1.5233000050547634
aF1.0504407126675475
aF0.8442389053132485
aF-0.2629123380010528
aa(lp133
a(lp134
ag0
(g35
g2
Ntp135
Rp136
(lp137
I4
aI465493253
ababag0
(g28
g2
Ntp138
Rp139
(lp140
(lp141
F0.20669308391295427
aF-0.8615439718245934
aF0.11153268004634889
aF1.4888447150612145
aF1.0826596951943335
aF0.8244773786086382
aF-0.2429306440232041
aa(lp142
a(lp143
ag0
(g35
g2
Ntp144
Rp145
(lp146
I4
aI843508887
ababag0
(g28
g2
Ntp147
Rp148
(lp149
(lp150
F0.22919989174016442
aF-0.8483907332971936
aF0.21359690138565013
aF1.4543894250676657
aF1.1148786777211197
aF0.804715851904028
aF-0.2229489500453554
aa(lp151
a(lp152
ag0
(g35
g2
Ntp153
Rp154
(lp155
I5
aI221524522
ababag0
(g28
g2
Ntp156
Rp157
(lp158
(lp159
F0.25170669956737457
aF-0.8352374947697937
aF0.31566112272495134
aF1.4199341350741168
aF1.1470976602479057
aF0.7849543251994175
aF-0.2029672560675067
aa(lp160
a(lp161
ag0
(g35
g2
Ntp162
Rp163
(lp164
I5
aI599540156
ababag0
(g28
g2
Ntp165
Rp166
(lp167
(lp168
F0.2742135073945847
aF-0.8220842562423938
aF0.4177253440642526
aF1.385478845080568
aF1.1793166427746917
aF0.7651927984948073
aF-0.182985562089658
aa(lp169
a(lp170
ag0
(g35
g2
Ntp171
Rp172
(lp173
I5
aI977555791
ababag0
(g28
g2
Ntp174
Rp175
(lp176
(lp177
F0.2967203152217949
aF-0.808931017714994
aF0.5197895654035538
aF1.351023555087019
aF1.211535625301478
aF0.745431271790197
aF-0.16300386811180928
aa(lp178
a(lp179
ag0
(g35
g2
Ntp180
Rp181
(lp182
I6
aI355571426
ababag0
(g28
g2
Ntp183
Rp184
(lp185
(lp186
F0.32305957295345045
aF-0.7889470295110379
aF0.6336162792868221
aF1.314868871746935
aF1.2459335015595723
aF0.7111233371023451
aF-0.14304535310722463
aa(lp187
a(lp188
ag0
(g35
g2
Ntp189
Rp190
(lp191
I6
aI777151847
ababag0
(g28
g2
Ntp192
Rp193
(lp194
(lp195
F0.3493988306851061
aF-0.7689630413070819
aF0.7474429931700902
aF1.2787141884068511
aF1.2803313778176668
aF0.6768154024144933
aF-0.12308683810263997
aa(lp196
a(lp197
ag0
(g35
g2
Ntp198
Rp199
(lp200
I7
aI198732269
ababag0
(g28
g2
Ntp201
Rp202
(lp203
(lp204
F0.37573808841676165
aF-0.7489790531031258
aF0.8612697070533585
aF1.242559505066767
aF1.3147292540757611
aF0.6425074677266415
aF-0.10312832309805531
aa(lp205
a(lp206
ag0
(g35
g2
Ntp207
Rp208
(lp209
I7
aI620312690
ababag0
(g28
g2
Ntp210
Rp211
(lp212
(lp213
F0.4020773461484172
aF-0.7289950648991698
aF0.9750964209366267
aF1.2064048217266832
aF1.3491271303338557
aF0.6081995330387896
aF-0.08316980809347065
aa(lp214
a(lp215
ag0
(g35
g2
Ntp216
Rp217
(lp218
I8
aI41893113
ababag0
(g28
g2
Ntp219
Rp220
(lp221
(lp222
F0.42841660388007285
aF-0.7090110766952138
aF1.088923134819895
aF1.170250138386599
aF1.38352500659195
aF0.5738915983509378
aF-0.06321129308888598
aa(lp223
a(lp224
ag0
(g35
g2
Ntp225
Rp226
(lp227
I8
aI463473535
ababag0
(g28
g2
Ntp228
Rp229
(lp230
(lp231
F0.45475586161172843
aF-0.6890270884912577
aF1.2027498487031631
aF1.1340954550465152
aF1.4179228828500445
aF0.539583663663086
aF-0.04325277808430132
aa(lp232
a(lp233
ag0
(g35
g2
Ntp234
Rp235
(lp236
I8
aI885053957
ababag0
(g28
g2
Ntp237
Rp238
(lp239
(lp240
F0.47559039028644706
aF-0.6653735950361673
aF1.2831881907327312
aF1.112619326683403
aF1.4394796084417083
aF0.49333688035267703
aF-0.03331987852853708
aa(lp241
a(lp242
ag0
(g35
g2
Ntp243
Rp244
(lp245
I9
aI182973741
ababag0
(g28
g2
Ntp246
Rp247
(lp248
(lp249
F0.49642491896116575
aF-0.6417201015810768
aF1.3636265327622994
aF1.0911431983202908
aF1.4610363340333723
aF0.4470900970422681
aF-0.02338697897277283
aa(lp250
a(lp251
ag0
(g35
g2
Ntp252
Rp253
(lp254
I9
aI480893526
ababag0
(g28
g2
Ntp255
Rp256
(lp257
(lp258
F0.5172594476358844
aF-0.6180666081259865
aF1.4440648747918674
aF1.0696670699571786
aF1.482593059625036
aF0.40084331373185916
aF-0.013454079417008585
aa(lp259
a(lp260
ag0
(g35
g2
Ntp261
Rp262
(lp263
I9
aI778813313
ababag0
(g28
g2
Ntp264
Rp265
(lp266
(lp267
F0.5380939763106031
aF-0.5944131146708961
aF1.5245032168214354
aF1.0481909415940664
aF1.5041497852166998
aF0.35459653042145023
aF-0.0035211798612443394
aa(lp268
a(lp269
ag0
(g35
g2
Ntp270
Rp271
(lp272
I10
aI76733098
ababag0
(g28
g2
Ntp273
Rp274
(lp275
(lp276
F0.5589285049853217
aF-0.5707596212158056
aF1.6049415588510036
aF1.026714813230954
aF1.5257065108083638
aF0.3083497471110413
aF0.006411719694519906
aa(lp277
a(lp278
ag0
(g35
g2
Ntp279
Rp280
(lp281
I10
aI374652882
ababag0
(g28
g2
Ntp282
Rp283
(lp284
(lp285
F0.5797630336600403
aF-0.5471061277607152
aF1.6853799008805717
aF1.0052386848678418
aF1.5472632364000276
aF0.26210296380063236
aF0.016344619250284152
aa(lp286
a(lp287
ag0
(g35
g2
Ntp288
Rp289
(lp290
I10
aI672572668
ababag0
(g28
g2
Ntp291
Rp292
(lp293
(lp294
F0.6000053685582445
aF-0.5042868770758109
aF1.7392606702175235
aF1.002381602277117
aF1.5539160234546623
aF0.16885509158990475
aF0.011192737686289691
aa(lp295
a(lp296
ag0
(g35
g2
Ntp297
Rp298
(lp299
I10
aI983398908
ababag0
(g28
g2
Ntp300
Rp301
(lp302
(lp303
F0.6202477034564486
aF-0.46146762639090655
aF1.7931414395544756
aF0.9995245196863921
aF1.5605688105092967
aF0.07560721937917711
aF0.00604085612229523
aa(lp304
a(lp305
ag0
(g35
g2
Ntp306
Rp307
(lp308
I11
aI294225150
ababag0
(g28
g2
Ntp309
Rp310
(lp311
(lp312
F0.6404900383546528
aF-0.4186483757060022
aF1.8470222088914277
aF0.9966674370956672
aF1.5672215975639312
aF-0.017640652831550516
aF0.0008889745583007692
aa(lp313
a(lp314
ag0
(g35
g2
Ntp315
Rp316
(lp317
I11
aI605051390
ababag0
(g28
g2
Ntp318
Rp319
(lp320
(lp321
F0.6607323732528569
aF-0.3758291250210979
aF1.9009029782283795
aF0.9938103545049424
aF1.5738743846185659
aF-0.11088852504227814
aF-0.004262907005693692
aa(lp322
a(lp323
ag0
(g35
g2
Ntp324
Rp325
(lp326
I11
aI915877631
ababag0
(g28
g2
Ntp327
Rp328
(lp329
(lp330
F0.6727176145656557
aF-0.327505616459492
aF1.9047011897847812
aF1.0129711043796752
aF1.5612654456735546
aF-0.22204467018684146
aF-0.024453211742918774
aa(lp331
a(lp332
ag0
(g35
g2
Ntp333
Rp334
(lp335
I12
aI286398115
ababag0
(g28
g2
Ntp336
Rp337
(lp338
(lp339
F0.6847028558784545
aF-0.2791821078978861
aF1.908499401341183
aF1.032131854254408
aF1.5486565067285434
aF-0.3332008153314048
aF-0.044643516480143856
aa(lp340
a(lp341
ag0
(g35
g2
Ntp342
Rp343
(lp344
I12
aI656918599
ababag0
(g28
g2
Ntp345
Rp346
(lp347
(lp348
F0.6966880971912532
aF-0.23085859933628025
aF1.9122976128975848
aF1.0512926041291408
aF1.5360475677835321
aF-0.44435696047596807
aF-0.06483382121736894
aa(lp349
a(lp350
ag0
(g35
g2
Ntp351
Rp352
(lp353
I13
aI27439083
ababag0
(g28
g2
Ntp354
Rp355
(lp356
(lp357
F0.708673338504052
aF-0.1825350907746744
aF1.9160958244539865
aF1.0704533540038736
aF1.5234386288385209
aF-0.5555131056205314
aF-0.08502412595459402
aa(lp358
a(lp359
ag0
(g35
g2
Ntp360
Rp361
(lp362
I13
aI397959567
ababag0
(g28
g2
Ntp363
Rp364
(lp365
(lp366
F0.7151538507599138
aF-0.13054207696193415
aF1.886505664156688
aF1.1042926588555781
aF1.4979885392270789
aF-0.6786080993876518
aF-0.11524004614063951
aa(lp367
a(lp368
ag0
(g35
g2
Ntp369
Rp370
(lp371
I13
aI808276212
ababag0
(g28
g2
Ntp372
Rp373
(lp374
(lp375
F0.7216343630157757
aF-0.07854906314919391
aF1.8569155038593896
aF1.1381319637072826
aF1.472538449615637
aF-0.8017030931547722
aF-0.145455966326685
aa(lp376
a(lp377
ag0
(g35
g2
Ntp378
Rp379
(lp380
I14
aI218592857
ababag0
(g28
g2
Ntp381
Rp382
(lp383
(lp384
F0.7259547045196836
aF-0.04388705394070042
aF1.8371887303278573
aF1.1606915002750857
aF1.4555717232080092
aF-0.8837664223328524
aF-0.165599913117382
aa(lp385
a(lp386
ag0
(g35
g2
Ntp387
Rp388
(lp389
I14
aI492137289
ababag0
(g28
g2
Ntp390
Rp391
(lp392
(lp393
F0.7302750460235914
aF-0.009225044732206936
aF1.8174619567963253
aF1.1832510368428886
aF1.4386049968003811
aF-0.9658297515109328
aF-0.185743859908079
aa(lp394
a(lp395
ag0
(g35
g2
Ntp396
Rp397
(lp398
I14
aI765681718
ababag0
(g28
g2
Ntp399
Rp400
(lp401
(lp402
F0.7345953875274993
aF0.025436964476286558
aF1.797735183264793
aF1.2058105734106916
aF1.4216382703927533
aF-1.047893080689013
aF-0.20588780669877602
aa(lp403
a(lp404
ag0
(g35
g2
Ntp405
Rp406
(lp407
I15
aI39226149
ababag0
(g28
g2
Ntp408
Rp409
(lp410
(lp411
F0.7370808193457615
aF0.06132214210182483
aF1.766878952448694
aF1.2332629616374853
aF1.4003911604296484
aF-1.1339360260746123
aF-0.22937362530574648
aa(lp412
a(lp413
ag0
(g35
g2
Ntp414
Rp415
(lp416
I15
aI326035967
ababag0
(g28
g2
Ntp417
Rp418
(lp419
(lp420
F0.7395662511640239
aF0.0972073197273631
aF1.736022721632595
aF1.2607153498642787
aF1.3791440504665438
aF-1.2199789714602116
aF-0.252859443912717
aa(lp421
a(lp422
ag0
(g35
g2
Ntp423
Rp424
(lp425
I15
aI612845785
ababag0
(g28
g2
Ntp426
Rp427
(lp428
(lp429
F0.7420516829822861
aF0.13309249735290138
aF1.705166490816496
aF1.2881677380910723
aF1.357896940503439
aF-1.306021916845811
aF-0.27634526251968744
aa(lp430
a(lp431
ag0
(g35
g2
Ntp432
Rp433
(lp434
I15
aI899655603
ababag0
(g28
g2
Ntp435
Rp436
(lp437
(lp438
F0.7495079784370727
aF0.2407480302295162
aF1.6125977983681992
aF1.3705249027714532
aF1.2941556106141248
aF-1.5641507530026089
aF-0.34680271834059884
aa(lp439
a(lp440
ag0
(g35
g2
Ntp441
Rp442
(lp443
I16
aI910085058
ababaabag0
(cmoveit_msgs.msg._MultiDOFJointTrajectory
MultiDOFJointTrajectory
p444
g2
Ntp445
Rp446
(lp447
g0
(g10
g2
Ntp448
Rp449
(lp450
I0
ag0
(g14
g2
Ntp451
Rp452
(lp453
I0
aI0
abaS''
p454
abag19
a(lp455
abab.