ccopy_reg
_reconstructor
p0
(cmoveit_msgs.msg._RobotTrajectory
RobotTrajectory
p1
c__builtin__
object
p2
Ntp3
Rp4
(lp5
g0
(ctrajectory_msgs.msg._JointTrajectory
JointTrajectory
p6
g2
Ntp7
Rp8
(lp9
g0
(cstd_msgs.msg._Header
Header
p10
g2
Ntp11
Rp12
(lp13
I0
ag0
(cgenpy.rostime
Time
p14
g2
Ntp15
Rp16
(lp17
I0
aI0
abaS'/base'
p18
aba(lp19
S'right_s0'
p20
aS'right_s1'
p21
aS'right_e0'
p22
aS'right_e1'
p23
aS'right_w0'
p24
aS'right_w1'
p25
aS'right_w2'
p26
aa(lp27
g0
(ctrajectory_msgs.msg._JointTrajectoryPoint
JointTrajectoryPoint
p28
g2
Ntp29
Rp30
(lp31
(lp32
F0.0019846564493723492
aF-0.6514879884533313
aF-1.2069165008490346
aF1.983763732785306
aF1.0716228661570142
aF1.001512753014928
aF2.1228289626376875
aa(lp33
a(lp34
ag0
(cgenpy.rostime
Duration
p35
g2
Ntp36
Rp37
(lp38
I0
aI0
ababag0
(g28
g2
Ntp39
Rp40
(lp41
(lp42
F0.02331844578658042
aF-0.6597956490625524
aF-1.1883950958125764
aF1.9506629381109144
aF1.0502747362659894
aF1.0253124720468856
aF2.011956972044164
aa(lp43
a(lp44
ag0
(g35
g2
Ntp45
Rp46
(lp47
I0
aI661743981
ababag0
(g28
g2
Ntp48
Rp49
(lp50
(lp51
F0.044652235123788485
aF-0.6681033096717736
aF-1.169873690776118
aF1.9175621434365229
aF1.0289266063749647
aF1.0491121910788435
aF1.9010849814506403
aa(lp52
a(lp53
ag0
(g35
g2
Ntp54
Rp55
(lp56
I0
aI942401238
ababag0
(g28
g2
Ntp57
Rp58
(lp59
(lp60
F0.06598602446099645
aF-0.6764109702809946
aF-1.15135228573966
aF1.8844613487621316
aF1.00757847648394
aF1.0729119101108011
aF1.7902129908571172
aa(lp61
a(lp62
ag0
(g35
g2
Ntp63
Rp64
(lp65
I1
aI164145220
ababag0
(g28
g2
Ntp66
Rp67
(lp68
(lp69
F0.08731981379820453
aF-0.6847186308902158
aF-1.1328308807032017
aF1.8513605540877398
aF0.9862303465929153
aF1.0967116291427588
aF1.6793410002635933
aa(lp70
a(lp71
ag0
(g35
g2
Ntp72
Rp73
(lp74
I1
aI385889201
ababag0
(g28
g2
Ntp75
Rp76
(lp77
(lp78
F0.1086536031354126
aF-0.6930262914994368
aF-1.1143094756667435
aF1.8182597594133483
aF0.9648822167018906
aF1.1205113481747166
aF1.5684690096700697
aa(lp79
a(lp80
ag0
(g35
g2
Ntp81
Rp82
(lp83
I1
aI607633181
ababag0
(g28
g2
Ntp84
Rp85
(lp86
(lp87
F0.12998739247262067
aF-0.701333952108658
aF-1.0957880706302854
aF1.7851589647389567
aF0.9435340868108657
aF1.1443110672066743
aF1.4575970190765462
aa(lp88
a(lp89
ag0
(g35
g2
Ntp90
Rp91
(lp92
I1
aI829377163
ababag0
(g28
g2
Ntp93
Rp94
(lp95
(lp96
F0.15132118180982873
aF-0.7096416127178791
aF-1.077266665593827
aF1.7520581700645652
aF0.922185956919841
aF1.1681107862386322
aF1.3467250284830226
aa(lp97
a(lp98
ag0
(g35
g2
Ntp99
Rp100
(lp101
I2
aI51121144
ababag0
(g28
g2
Ntp102
Rp103
(lp104
(lp105
F0.1726549711470367
aF-0.7179492733271001
aF-1.058745260557369
aF1.718957375390174
aF0.9008378270288163
aF1.1919105052705898
aF1.2358530378894994
aa(lp106
a(lp107
ag0
(g35
g2
Ntp108
Rp109
(lp110
I2
aI272865126
ababag0
(g28
g2
Ntp111
Rp112
(lp113
(lp114
F0.19398876048424477
aF-0.7262569339363213
aF-1.0402238555209107
aF1.6858565807157824
aF0.8794896971377916
aF1.2157102243025475
aF1.1249810472959758
aa(lp115
a(lp116
ag0
(g35
g2
Ntp117
Rp118
(lp119
I2
aI494609106
ababag0
(g28
g2
Ntp120
Rp121
(lp122
(lp123
F0.21532254982145285
aF-0.7345645945455423
aF-1.0217024504844525
aF1.6527557860413908
aF0.8581415672467668
aF1.2395099433345054
aF1.0141090567024522
aa(lp124
a(lp125
ag0
(g35
g2
Ntp126
Rp127
(lp128
I2
aI716353087
ababag0
(g28
g2
Ntp129
Rp130
(lp131
(lp132
F0.2366563391586609
aF-0.7428722551547635
aF-1.0031810454479944
aF1.6196549913669993
aF0.8367934373557421
aF1.263309662366463
aF0.9032370661089285
aa(lp133
a(lp134
ag0
(g35
g2
Ntp135
Rp136
(lp137
I2
aI938097070
ababag0
(g28
g2
Ntp138
Rp139
(lp140
(lp141
F0.257990128495869
aF-0.7511799157639846
aF-0.9846596404115361
aF1.5865541966926078
aF0.8154453074647173
aF1.287109381398421
aF0.7923650755154048
aa(lp142
a(lp143
ag0
(g35
g2
Ntp144
Rp145
(lp146
I3
aI159841050
ababag0
(g28
g2
Ntp147
Rp148
(lp149
(lp150
F0.279323917833077
aF-0.7594875763732056
aF-0.9661382353750779
aF1.5534534020182162
aF0.7940971775736927
aF1.3109091004303786
aF0.6814930849218817
aa(lp151
a(lp152
ag0
(g35
g2
Ntp153
Rp154
(lp155
I3
aI381585032
ababag0
(g28
g2
Ntp156
Rp157
(lp158
(lp159
F0.300657707170285
aF-0.7677952369824268
aF-0.9476168303386197
aF1.5203526073438247
aF0.7727490476826679
aF1.3347088194623362
aF0.5706210943283581
aa(lp160
a(lp161
ag0
(g35
g2
Ntp162
Rp163
(lp164
I3
aI603329012
ababag0
(g28
g2
Ntp165
Rp166
(lp167
(lp168
F0.3219914965074931
aF-0.7761028975916479
aF-0.9290954253021615
aF1.4872518126694332
aF0.7514009177916432
aF1.358508538494294
aF0.4597491037348344
aa(lp169
a(lp170
ag0
(g35
g2
Ntp171
Rp172
(lp173
I3
aI825072994
ababag0
(g28
g2
Ntp174
Rp175
(lp176
(lp177
F0.3433252858447012
aF-0.784410558200869
aF-0.9105740202657032
aF1.4541510179950417
aF0.7300527879006184
aF1.3823082575262517
aF0.34887711314131076
aa(lp178
a(lp179
ag0
(g35
g2
Ntp180
Rp181
(lp182
I4
aI46816974
ababag0
(g28
g2
Ntp183
Rp184
(lp185
(lp186
F0.3646590751819092
aF-0.7927182188100901
aF-0.8920526152292451
aF1.4210502233206501
aF0.7087046580095936
aF1.4061079765582096
aF0.23800512254778713
aa(lp187
a(lp188
ag0
(g35
g2
Ntp189
Rp190
(lp191
I4
aI268560956
ababag0
(g28
g2
Ntp192
Rp193
(lp194
(lp195
F0.3859928645191172
aF-0.8010258794193111
aF-0.8735312101927869
aF1.3879494286462588
aF0.687356528118569
aF1.4299076955901673
aF0.127133131954264
aa(lp196
a(lp197
ag0
(g35
g2
Ntp198
Rp199
(lp200
I4
aI490304938
ababag0
(g28
g2
Ntp201
Rp202
(lp203
(lp204
F0.40732665385632527
aF-0.8093335400285323
aF-0.8550098051563286
aF1.3548486339718673
aF0.6660083982275442
aF1.453707414622125
aF0.01626114136074037
aa(lp205
a(lp206
ag0
(g35
g2
Ntp207
Rp208
(lp209
I4
aI712048918
ababag0
(g28
g2
Ntp210
Rp211
(lp212
(lp213
F0.42866044319353336
aF-0.8176412006377534
aF-0.8364884001198705
aF1.3217478392974757
aF0.6446602683365195
aF1.4775071336540828
aF-0.09461084923278326
aa(lp214
a(lp215
ag0
(g35
g2
Ntp216
Rp217
(lp218
I4
aI933792900
ababag0
(g28
g2
Ntp219
Rp220
(lp221
(lp222
F0.4499942325307414
aF-0.8259488612469745
aF-0.8179669950834122
aF1.2886470446230842
aF0.6233121384454947
aF1.5013068526860405
aF-0.2054828398263069
aa(lp223
a(lp224
ag0
(g35
g2
Ntp225
Rp226
(lp227
I5
aI155536880
ababag0
(g28
g2
Ntp228
Rp229
(lp230
(lp231
F0.4713280218679494
aF-0.8342565218561956
aF-0.799445590046954
aF1.2555462499486927
aF0.60196400855447
aF1.5251065717179981
aF-0.3163548304198303
aa(lp232
a(lp233
ag0
(g35
g2
Ntp234
Rp235
(lp236
I5
aI377280863
ababag0
(g28
g2
Ntp237
Rp238
(lp239
(lp240
F0.4926618112051575
aF-0.8425641824654168
aF-0.7809241850104958
aF1.2224454552743012
aF0.5806158786634452
aF1.548906290749956
aF-0.4272268210133539
aa(lp241
a(lp242
ag0
(g35
g2
Ntp243
Rp244
(lp245
I5
aI599024843
ababag0
(g28
g2
Ntp246
Rp247
(lp248
(lp249
F0.5139956005423656
aF-0.8508718430746378
aF-0.7624027799740376
aF1.1893446605999096
aF0.5592677487724205
aF1.5727060097819137
aF-0.5380988116068776
aa(lp250
a(lp251
ag0
(g35
g2
Ntp252
Rp253
(lp254
I5
aI820768824
ababag0
(g28
g2
Ntp255
Rp256
(lp257
(lp258
F0.5353293898795736
aF-0.8591795036838589
aF-0.7438813749375794
aF1.156243865925518
aF0.5379196188813958
aF1.5965057288138715
aF-0.6489708022004009
aa(lp259
a(lp260
ag0
(g35
g2
Ntp261
Rp262
(lp263
I6
aI42512805
ababag0
(g28
g2
Ntp264
Rp265
(lp266
(lp267
F0.5566631792167817
aF-0.86748716429308
aF-0.7253599699011212
aF1.1231430712511266
aF0.5165714889903711
aF1.6203054478458292
aF-0.7598427927939246
aa(lp268
a(lp269
ag0
(g35
g2
Ntp270
Rp271
(lp272
I6
aI264256786
ababag0
(g28
g2
Ntp273
Rp274
(lp275
(lp276
F0.5779969685539896
aF-0.8757948249023011
aF-0.706838564864663
aF1.090042276576735
aF0.49522335909934634
aF1.6441051668777868
aF-0.870714783387448
aa(lp277
a(lp278
ag0
(g35
g2
Ntp279
Rp280
(lp281
I6
aI486000768
ababag0
(g28
g2
Ntp282
Rp283
(lp284
(lp285
F0.5993307578911977
aF-0.8841024855115223
aF-0.6883171598282047
aF1.0569414819023435
aF0.4738752292083216
aF1.6679048859097447
aF-0.9815867739809716
aa(lp286
a(lp287
ag0
(g35
g2
Ntp288
Rp289
(lp290
I6
aI707744750
ababag0
(g28
g2
Ntp291
Rp292
(lp293
(lp294
F0.6206645472284058
aF-0.8924101461207433
aF-0.6697957547917466
aF1.023840687227952
aF0.45252709931729684
aF1.6917046049417024
aF-1.0924587645744952
aa(lp295
a(lp296
ag0
(g35
g2
Ntp297
Rp298
(lp299
I6
aI929488731
ababag0
(g28
g2
Ntp300
Rp301
(lp302
(lp303
F0.6419983365656139
aF-0.9007178067299644
aF-0.6512743497552884
aF0.9907398925535605
aF0.4311789694262721
aF1.7155043239736603
aF-1.2033307551680186
aa(lp304
a(lp305
ag0
(g35
g2
Ntp306
Rp307
(lp308
I7
aI151232711
ababag0
(g28
g2
Ntp309
Rp310
(lp311
(lp312
F0.6633321259028219
aF-0.9090254673391855
aF-0.6327529447188301
aF0.957639097879169
aF0.40983083953524735
aF1.739304043005618
aF-1.3142027457615424
aa(lp313
a(lp314
ag0
(g35
g2
Ntp315
Rp316
(lp317
I7
aI372976692
ababag0
(g28
g2
Ntp318
Rp319
(lp320
(lp321
F0.68466591524003
aF-0.9173331279484066
aF-0.614231539682372
aF0.9245383032047775
aF0.38848270964422266
aF1.7631037620375756
aF-1.4250747363550658
aa(lp322
a(lp323
ag0
(g35
g2
Ntp324
Rp325
(lp326
I7
aI594720673
ababag0
(g28
g2
Ntp327
Rp328
(lp329
(lp330
F0.705999704577238
aF-0.9256407885576278
aF-0.5957101346459137
aF0.8914375085303861
aF0.3671345797531979
aF1.7869034810695335
aF-1.5359467269485894
aa(lp331
a(lp332
ag0
(g35
g2
Ntp333
Rp334
(lp335
I7
aI816464655
ababag0
(g28
g2
Ntp336
Rp337
(lp338
(lp339
F0.727333493914446
aF-0.9339484491668488
aF-0.5771887296094556
aF0.8583367138559945
aF0.34578644986217316
aF1.810703200101491
aF-1.6468187175421127
aa(lp340
a(lp341
ag0
(g35
g2
Ntp342
Rp343
(lp344
I8
aI38208636
ababag0
(g28
g2
Ntp345
Rp346
(lp347
(lp348
F0.7486672832516541
aF-0.94225610977607
aF-0.5586673245729973
aF0.825235919181603
aF0.3244383199711484
aF1.834502919133449
aF-1.7576907081356365
aa(lp349
a(lp350
ag0
(g35
g2
Ntp351
Rp352
(lp353
I8
aI259952617
ababag0
(g28
g2
Ntp354
Rp355
(lp356
(lp357
F0.7700010725888622
aF-0.950563770385291
aF-0.5401459195365391
aF0.7921351245072115
aF0.30309019008012367
aF1.8583026381654066
aF-1.86856269872916
aa(lp358
a(lp359
ag0
(g35
g2
Ntp360
Rp361
(lp362
I8
aI481696598
ababag0
(g28
g2
Ntp363
Rp364
(lp365
(lp366
F0.7913348619260702
aF-0.9588714309945121
aF-0.521624514500081
aF0.7590343298328199
aF0.281742060189099
aF1.8821023571973643
aF-1.9794346893226835
aa(lp367
a(lp368
ag0
(g35
g2
Ntp369
Rp370
(lp371
I8
aI703440580
ababag0
(g28
g2
Ntp372
Rp373
(lp374
(lp375
F0.8126686512632783
aF-0.9671790916037333
aF-0.5031031094636227
aF0.7259335351584284
aF0.2603939302980742
aF1.9059020762293222
aF-2.090306679916207
aa(lp376
a(lp377
ag0
(g35
g2
Ntp378
Rp379
(lp380
I8
aI925184561
ababag0
(g28
g2
Ntp381
Rp382
(lp383
(lp384
F0.8340024406004863
aF-0.9754867522129543
aF-0.48458170442716453
aF0.692832740484037
aF0.23904580040704948
aF1.9297017952612798
aF-2.2011786705097305
aa(lp385
a(lp386
ag0
(g35
g2
Ntp387
Rp388
(lp389
I9
aI146928542
ababag0
(g28
g2
Ntp390
Rp391
(lp392
(lp393
F0.8553362299376943
aF-0.9837944128221755
aF-0.4660602993907063
aF0.6597319458096454
aF0.21769767051602476
aF1.9535015142932377
aF-2.312050661103254
aa(lp394
a(lp395
ag0
(g35
g2
Ntp396
Rp397
(lp398
I9
aI409540921
ababag0
(g28
g2
Ntp399
Rp400
(lp401
(lp402
F0.8766700192749024
aF-0.9921020734313966
aF-0.4475388943542481
aF0.6266311511352539
aF0.196349540625
aF1.9773012333251954
aF-2.4229226516967777
aa(lp403
a(lp404
ag0
(g35
g2
Ntp405
Rp406
(lp407
I9
aI881284902
ababaabag0
(cmoveit_msgs.msg._MultiDOFJointTrajectory
MultiDOFJointTrajectory
p408
g2
Ntp409
Rp410
(lp411
g0
(g10
g2
Ntp412
Rp413
(lp414
I0
ag0
(g14
g2
Ntp415
Rp416
(lp417
I0
aI0
abaS''
p418
abag19
a(lp419
abab.