ccopy_reg
_reconstructor
p0
(cmoveit_msgs.msg._RobotTrajectory
RobotTrajectory
p1
c__builtin__
object
p2
Ntp3
Rp4
(lp5
g0
(ctrajectory_msgs.msg._JointTrajectory
JointTrajectory
p6
g2
Ntp7
Rp8
(lp9
g0
(cstd_msgs.msg._Header
Header
p10
g2
Ntp11
Rp12
(lp13
I0
ag0
(cgenpy.rostime
Time
p14
g2
Ntp15
Rp16
(lp17
I0
aI0
abaS'/base'
p18
aba(lp19
S'left_s0'
p20
aS'left_s1'
p21
aS'left_e0'
p22
aS'left_e1'
p23
aS'left_w0'
p24
aS'left_w1'
p25
aS'left_w2'
p26
aa(lp27
g0
(ctrajectory_msgs.msg._JointTrajectoryPoint
JointTrajectoryPoint
p28
g2
Ntp29
Rp30
(lp31
(lp32
F0.6556917452493872
aF0.18182353069469992
aF1.6546672953421309
aF0.9867083172199729
aF1.3449199705206527
aF-1.511745678352946
aF-0.8105910656499721
aa(lp33
a(lp34
ag0
(cgenpy.rostime
Duration
p35
g2
Ntp36
Rp37
(lp38
I0
aI0
ababag0
(g28
g2
Ntp39
Rp40
(lp41
(lp42
F0.6590286611045382
aF0.18841251563962275
aF1.6500410977391737
aF0.9800184430150075
aF1.341455219574209
aF-1.5025857214164429
aF-0.81352932727381
aa(lp43
a(lp44
ag0
(g35
g2
Ntp45
Rp46
(lp47
I0
aI200000002
ababag0
(g28
g2
Ntp48
Rp49
(lp50
(lp51
F0.662519753051458
aF0.19499094576066112
aF1.64549221502279
aF0.9729599661433277
aF1.3380720870516836
aF-1.4933823017769052
aF-0.8166184446803219
aa(lp52
a(lp53
ag0
(g35
g2
Ntp54
Rp55
(lp56
I0
aI400000001
ababag0
(g28
g2
Ntp57
Rp58
(lp59
(lp60
F0.6661696915403712
aF0.20155974391931836
aF1.6410249974367388
aF0.9655257730517431
aF1.3347758773922165
aF-1.4841340158800593
aF-0.8198630734050275
aa(lp61
a(lp62
ag0
(g35
g2
Ntp63
Rp64
(lp65
I0
aI600000001
ababag0
(g28
g2
Ntp66
Rp67
(lp68
(lp69
F0.6699835326787206
aF0.20811982364195314
aF1.63664395343116
aF0.9577080490008584
aF1.3315720968997176
aF-1.47483938867385
aF-0.8232683481875283
aa(lp70
a(lp71
ag0
(g35
g2
Ntp72
Rp73
(lp74
I0
aI800000001
ababag0
(g28
g2
Ntp75
Rp76
(lp77
(lp78
F0.6739667564563421
aF0.21467208941469712
aF1.6323537706920752
aF0.9494982062779325
aF1.3284664782436881
aF-1.4654968667472987
aF-0.8268399287776659
aa(lp79
a(lp80
ag0
(g35
g2
Ntp81
Rp82
(lp83
I1
aI1
ababag0
(g28
g2
Ntp84
Rp85
(lp86
(lp87
F0.6781253105705674
aF0.2212174368671139
aF1.62815934008001
aF0.9408868017509662
aF1.3254650081987496
aF-1.4561048104877237
aF-0.8305840525115812
aa(lp88
a(lp89
ag0
(g35
g2
Ntp90
Rp91
(lp92
I1
aI200000001
ababag0
(g28
g2
Ntp93
Rp94
(lp95
(lp96
F0.682465660850043
aF0.227756752817309
aF1.62406578299522
aF0.9318634418482783
aF1.3225739591864651
aF-1.446661485080011
aF-0.834507594853431
aa(lp97
a(lp98
ag0
(g35
g2
Ntp99
Rp100
(lp101
I1
aI400000001
ababag0
(g28
g2
Ntp102
Rp103
(lp104
(lp105
F0.6869948494988521
aF0.23429091514280043
aF1.6200784827983754
aF0.9224166726174094
aF1.3197999253039168
aF-1.4371650501318611
aF-0.8386181393643417
aa(lp106
a(lp107
ag0
(g35
g2
Ntp108
Rp109
(lp110
I1
aI600000000
ababag0
(g28
g2
Ntp111
Rp112
(lp113
(lp114
F0.6917205626644343
aF0.240820792430577
aF1.6162031210561407
aF0.9125338519719979
aF1.3171498636759782
aF-1.4276135476585319
aF-0.8429240588963104
aa(lp115
a(lp116
ag0
(g35
g2
Ntp117
Rp118
(lp119
I1
aI800000000
ababag0
(g28
g2
Ntp120
Rp121
(lp122
(lp123
F0.696651209192437
aF0.2473472433455748
aF1.6124457195599848
aF0.9022010005390775
aF1.3146311421620873
aF-1.4180048880962017
aF-0.8474346102372936
aa(lp124
a(lp125
ag0
(g35
g2
Ntp126
Rp127
(lp128
I2
aI0
ababag0
(g28
g2
Ntp129
Rp130
(lp131
(lp132
F0.7017960128940669
aF0.2538711156381365
aF1.6088126892959616
aF0.8914026266230699
aF1.3122515946967592
aF-1.4083368339301234
aF-0.8521600449844975
aa(lp133
a(lp134
ag0
(g35
g2
Ntp135
Rp136
(lp137
I2
aI200000000
ababag0
(g28
g2
Ntp138
Rp139
(lp140
(lp141
F0.7071651424072266
aF0.26039323844604495
aF1.6053108926879884
aF0.8801214760437013
aF1.310019591357422
aF-1.3986069817565918
aF-0.8571117642517091
aa(lp142
a(lp143
ag0
(g35
g2
Ntp144
Rp145
(lp146
I2
aI400000000
ababaabag0
(cmoveit_msgs.msg._MultiDOFJointTrajectory
MultiDOFJointTrajectory
p147
g2
Ntp148
Rp149
(lp150
g0
(g10
g2
Ntp151
Rp152
(lp153
I0
ag0
(g14
g2
Ntp154
Rp155
(lp156
I0
aI0
abaS''
p157
abag19
a(lp158
abab.