ccopy_reg
_reconstructor
p0
(cmoveit_msgs.msg._RobotTrajectory
RobotTrajectory
p1
c__builtin__
object
p2
Ntp3
Rp4
(lp5
g0
(ctrajectory_msgs.msg._JointTrajectory
JointTrajectory
p6
g2
Ntp7
Rp8
(lp9
g0
(cstd_msgs.msg._Header
Header
p10
g2
Ntp11
Rp12
(lp13
I0
ag0
(cgenpy.rostime
Time
p14
g2
Ntp15
Rp16
(lp17
I0
aI0
abaS'/base'
p18
aba(lp19
S'right_s0'
p20
aS'right_s1'
p21
aS'right_e0'
p22
aS'right_e1'
p23
aS'right_w0'
p24
aS'right_w1'
p25
aS'right_w2'
p26
aa(lp27
g0
(ctrajectory_msgs.msg._JointTrajectoryPoint
JointTrajectoryPoint
p28
g2
Ntp29
Rp30
(lp31
(lp32
F0.2316310987060547
aF-0.10507768385009766
aF1.251344826287842
aF1.4672526219360353
aF-1.3955390201843263
aF1.2927623075134278
aF-2.2910003040893554
aa(lp33
a(lp34
ag0
(cgenpy.rostime
Duration
p35
g2
Ntp36
Rp37
(lp38
I0
aI0
ababag0
(g28
g2
Ntp39
Rp40
(lp41
(lp42
F0.21830398428456074
aF-0.11152186293966079
aF1.2648651769587138
aF1.4656159864304659
aF-1.396358223986517
aF1.279163814880456
aF-2.291630332812095
aa(lp43
a(lp44
ag0
(g35
g2
Ntp45
Rp46
(lp47
I0
aI170075372
ababag0
(g28
g2
Ntp48
Rp49
(lp50
(lp51
F0.20548269673599664
aF-0.11698890207615771
aF1.2749403419541745
aF1.4646678744897583
aF-1.395777617708606
aF1.2687149618880469
aF-2.2930887239025894
aa(lp52
a(lp53
ag0
(g35
g2
Ntp54
Rp55
(lp56
I0
aI260582298
ababag0
(g28
g2
Ntp57
Rp58
(lp59
(lp60
F0.19164975544157287
aF-0.12441022111878702
aF1.2919058783004571
aF1.4623427154193274
aF-1.3979966315908983
aF1.2519668296145126
aF-2.292890390257574
aa(lp61
a(lp62
ag0
(g35
g2
Ntp63
Rp64
(lp65
I0
aI377627545
ababag0
(g28
g2
Ntp66
Rp67
(lp68
(lp69
F0.17832264102007891
aF-0.13085440020835015
aF1.3054262289713288
aF1.460706079913758
aF-1.398815835393089
aF1.2383683369815406
aF-2.2935204189803136
aa(lp70
a(lp71
ag0
(g35
g2
Ntp72
Rp73
(lp74
I0
aI641851998
ababag0
(g28
g2
Ntp75
Rp76
(lp77
(lp78
F0.16154863075690173
aF-0.1409397578415457
aF1.3062880644983916
aF1.4488620517986373
aF-1.3657878133900554
aF1.2157464378155614
aF-2.250333828642778
aa(lp79
a(lp80
ag0
(g35
g2
Ntp81
Rp82
(lp83
I0
aI951945404
ababag0
(g28
g2
Ntp84
Rp85
(lp86
(lp87
F0.14477462049372453
aF-0.15102511547474123
aF1.3071499000254545
aF1.4370180236835166
aF-1.332759791387022
aF1.1931245386495823
aF-2.207147238305242
aa(lp88
a(lp89
ag0
(g35
g2
Ntp90
Rp91
(lp92
I1
aI118462217
ababag0
(g28
g2
Ntp93
Rp94
(lp95
(lp96
F0.12800061023054735
aF-0.16111047310793677
aF1.3080117355525174
aF1.425173995568396
aF-1.2997317693839883
aF1.1705026394836033
aF-2.1639606479677065
aa(lp97
a(lp98
ag0
(g35
g2
Ntp99
Rp100
(lp101
I1
aI248846326
ababag0
(g28
g2
Ntp102
Rp103
(lp104
(lp105
F0.11122659996737017
aF-0.17119583074113232
aF1.3088735710795802
aF1.4133299674532753
aF-1.2667037473809546
aF1.1478807403176243
aF-2.1207740576301704
aa(lp106
a(lp107
ag0
(g35
g2
Ntp108
Rp109
(lp110
I1
aI358939732
ababag0
(g28
g2
Ntp111
Rp112
(lp113
(lp114
F0.08755879802082649
aF-0.18856354546159268
aF1.2844183763190253
aF1.3810711541190521
aF-1.1659812737674724
aF1.1072120280856308
aF-1.9899542291720835
aa(lp115
a(lp116
ag0
(g35
g2
Ntp117
Rp118
(lp119
I1
aI694681311
ababag0
(g28
g2
Ntp120
Rp121
(lp122
(lp123
F0.06389099607428281
aF-0.20593126018205304
aF1.2599631815584704
aF1.3488123407848291
aF-1.0652588001539902
aF1.0665433158536375
aF-1.8591344007139967
aa(lp124
a(lp125
ag0
(g35
g2
Ntp126
Rp127
(lp128
I2
aI30422890
ababag0
(g28
g2
Ntp129
Rp130
(lp131
(lp132
F0.04022319412773913
aF-0.2232989749025134
aF1.2355079867979155
aF1.3165535274506062
aF-0.964536326540508
aF1.025874603621644
aF-1.72831457225591
aa(lp133
a(lp134
ag0
(g35
g2
Ntp135
Rp136
(lp137
I2
aI366164469
ababag0
(g28
g2
Ntp138
Rp139
(lp140
(lp141
F0.016555392181195443
aF-0.24066668962297377
aF1.2110527920373606
aF1.284294714116383
aF-0.8638138529270258
aF0.9852058913896505
aF-1.5974947437978233
aa(lp142
a(lp143
ag0
(g35
g2
Ntp144
Rp145
(lp146
I2
aI701906048
ababag0
(g28
g2
Ntp147
Rp148
(lp149
(lp150
F0.005670723645300681
aF-0.25119140400700235
aF1.1790445232867572
aF1.2568854357158952
aF-0.7737224814663238
aF0.9594263744144582
aF-1.4808128856826182
aa(lp151
a(lp152
ag0
(g35
g2
Ntp153
Rp154
(lp155
I3
aI2210618
ababag0
(g28
g2
Ntp156
Rp157
(lp158
(lp159
F-0.005213944890594081
aF-0.2617161183910309
aF1.1470362545361537
aF1.2294761573154074
aF-0.6836311100056218
aF0.9336468574392658
aF-1.3641310275674128
aa(lp160
a(lp161
ag0
(g35
g2
Ntp162
Rp163
(lp164
I3
aI302515190
ababag0
(g28
g2
Ntp165
Rp166
(lp167
(lp168
F-0.016098613426488842
aF-0.2722408327750595
aF1.11502798578555
aF1.2020668789149198
aF-0.5935397385449197
aF0.9078673404640735
aF-1.2474491694522074
aa(lp169
a(lp170
ag0
(g35
g2
Ntp171
Rp172
(lp173
I3
aI602819762
ababag0
(g28
g2
Ntp174
Rp175
(lp176
(lp177
F-0.026983281962383605
aF-0.2827655471590881
aF1.0830197170349467
aF1.174657600514432
aF-0.5034483670842177
aF0.8820878234888812
aF-1.130767311337002
aa(lp178
a(lp179
ag0
(g35
g2
Ntp180
Rp181
(lp182
I3
aI903124334
ababag0
(g28
g2
Ntp183
Rp184
(lp185
(lp186
F-0.03786795049827837
aF-0.29329026154311666
aF1.0510114482843431
aF1.1472483221139442
aF-0.4133569956235157
aF0.8563083065136888
aF-1.0140854532217967
aa(lp187
a(lp188
ag0
(g35
g2
Ntp189
Rp190
(lp191
I4
aI203428905
ababag0
(g28
g2
Ntp192
Rp193
(lp194
(lp195
F-0.04875261903417313
aF-0.30381497592714524
aF1.0190031795337395
aF1.1198390437134567
aF-0.3232656241628136
aF0.8305287895384965
aF-0.8974035951065913
aa(lp196
a(lp197
ag0
(g35
g2
Ntp198
Rp199
(lp200
I4
aI503733476
ababag0
(g28
g2
Ntp201
Rp202
(lp203
(lp204
F-0.05963728757006789
aF-0.3143396903111738
aF0.9869949107831361
aF1.0924297653129689
aF-0.23317425270211156
aF0.8047492725633041
aF-0.7807217369913859
aa(lp205
a(lp206
ag0
(g35
g2
Ntp207
Rp208
(lp209
I4
aI804038047
ababag0
(g28
g2
Ntp210
Rp211
(lp212
(lp213
F-0.07052195610596265
aF-0.3248644046952024
aF0.9549866420325326
aF1.065020486912481
aF-0.14308288124140953
aF0.7789697555881118
aF-0.6640398788761807
aa(lp214
a(lp215
ag0
(g35
g2
Ntp216
Rp217
(lp218
I5
aI104342619
ababag0
(g28
g2
Ntp219
Rp220
(lp221
(lp222
F-0.07329161001569134
aF-0.33014702963919884
aF0.9255310938588093
aF1.0451396722836366
aF-0.07523067375970971
aF0.7651465395078236
aF-0.5763353154625538
aa(lp223
a(lp224
ag0
(g35
g2
Ntp225
Rp226
(lp227
I5
aI330516645
ababag0
(g28
g2
Ntp228
Rp229
(lp230
(lp231
F-0.07606126392542002
aF-0.33542965458319535
aF0.8960755456850859
aF1.0252588576547923
aF-0.007378466278009879
aF0.7513233234275354
aF-0.4886307520489269
aa(lp232
a(lp233
ag0
(g35
g2
Ntp234
Rp235
(lp236
I5
aI556690670
ababag0
(g28
g2
Ntp237
Rp238
(lp239
(lp240
F-0.0788309178351487
aF-0.34071227952719185
aF0.8666199975113624
aF1.005378043025948
aF0.060473741203689944
aF0.7375001073472472
aF-0.40092618863530005
aa(lp241
a(lp242
ag0
(g35
g2
Ntp243
Rp244
(lp245
I5
aI782864694
ababag0
(g28
g2
Ntp246
Rp247
(lp248
(lp249
F-0.08160057174487739
aF-0.3459949044711883
aF0.8371644493376391
aF0.9854972283971035
aF0.12832594868538977
aF0.7236768912669591
aF-0.3132216252216732
aa(lp250
a(lp251
ag0
(g35
g2
Ntp252
Rp253
(lp254
I6
aI9038720
ababag0
(g28
g2
Ntp255
Rp256
(lp257
(lp258
F-0.08437022565460607
aF-0.3512775294151848
aF0.8077089011639158
aF0.9656164137682591
aF0.1961781561670896
aF0.709853675186671
aF-0.22551706180804632
aa(lp259
a(lp260
ag0
(g35
g2
Ntp261
Rp262
(lp263
I6
aI235212745
ababag0
(g28
g2
Ntp264
Rp265
(lp266
(lp267
F-0.08713987956433475
aF-0.3565601543591813
aF0.7782533529901924
aF0.9457355991394147
aF0.2640303636487894
aF0.6960304591063828
aF-0.13781249839441942
aa(lp268
a(lp269
ag0
(g35
g2
Ntp270
Rp271
(lp272
I6
aI461386769
ababag0
(g28
g2
Ntp273
Rp274
(lp275
(lp276
F-0.08990953347406344
aF-0.36184277930317776
aF0.748797804816469
aF0.9258547845105703
aF0.33188257113048925
aF0.6822072430260947
aF-0.05010793498079254
aa(lp277
a(lp278
ag0
(g35
g2
Ntp279
Rp280
(lp281
I6
aI687560795
ababag0
(g28
g2
Ntp282
Rp283
(lp284
(lp285
F-0.09267918738379212
aF-0.36712540424717427
aF0.7193422566427456
aF0.905973969881726
aF0.3997347786121891
aF0.6683840269458066
aF0.037596628432834345
aa(lp286
a(lp287
ag0
(g35
g2
Ntp288
Rp289
(lp290
I6
aI913734820
ababag0
(g28
g2
Ntp291
Rp292
(lp293
(lp294
F-0.0954488412935208
aF-0.3724080291911708
aF0.6898867084690223
aF0.8860931552528816
aF0.46758698609388893
aF0.6545608108655184
aF0.1253011918464612
aa(lp295
a(lp296
ag0
(g35
g2
Ntp297
Rp298
(lp299
I7
aI139908843
ababag0
(g28
g2
Ntp300
Rp301
(lp302
(lp303
F-0.09821849520324949
aF-0.3776906541351672
aF0.6604311602952989
aF0.8662123406240372
aF0.5354391935755887
aF0.6407375947852303
aF0.2130057552600881
aa(lp304
a(lp305
ag0
(g35
g2
Ntp306
Rp307
(lp308
I7
aI366082869
ababag0
(g28
g2
Ntp309
Rp310
(lp311
(lp312
F-0.10098814911297817
aF-0.38297327907916373
aF0.6309756121215755
aF0.8463315259951928
aF0.6032914010572885
aF0.6269143787049422
aF0.300710318673715
aa(lp313
a(lp314
ag0
(g35
g2
Ntp315
Rp316
(lp317
I7
aI592256894
ababag0
(g28
g2
Ntp318
Rp319
(lp320
(lp321
F-0.10375780302270685
aF-0.38825590402316024
aF0.6015200639478522
aF0.8264507113663484
aF0.6711436085389884
aF0.613091162624654
aF0.3884148820873419
aa(lp322
a(lp323
ag0
(g35
g2
Ntp324
Rp325
(lp326
I7
aI818430918
ababag0
(g28
g2
Ntp327
Rp328
(lp329
(lp330
F-0.10652745693243554
aF-0.3935385289671567
aF0.5720645157741288
aF0.806569896737504
aF0.7389958160206882
aF0.5992679465443659
aF0.47611944550096874
aa(lp331
a(lp332
ag0
(g35
g2
Ntp333
Rp334
(lp335
I8
aI44604943
ababag0
(g28
g2
Ntp336
Rp337
(lp338
(lp339
F-0.10929711084216422
aF-0.3988211539111532
aF0.5426089676004054
aF0.7866890821086596
aF0.806848023502388
aF0.5854447304640777
aF0.5638240089145956
aa(lp340
a(lp341
ag0
(g35
g2
Ntp342
Rp343
(lp344
I8
aI270778969
ababag0
(g28
g2
Ntp345
Rp346
(lp347
(lp348
F-0.1120667647518929
aF-0.4041037788551497
aF0.513153419426682
aF0.7668082674798151
aF0.8747002309840879
aF0.5716215143837895
aF0.6515285723282225
aa(lp349
a(lp350
ag0
(g35
g2
Ntp351
Rp352
(lp353
I8
aI496952994
ababag0
(g28
g2
Ntp354
Rp355
(lp356
(lp357
F-0.11483641866162159
aF-0.40938640379914615
aF0.48369787125295866
aF0.7469274528509707
aF0.9425524384657877
aF0.5577982983035014
aF0.7392331357418493
aa(lp358
a(lp359
ag0
(g35
g2
Ntp360
Rp361
(lp362
I8
aI723127018
ababag0
(g28
g2
Ntp363
Rp364
(lp365
(lp366
F-0.12014497860874161
aF-0.41253972390982985
aF0.4373383500019856
aF0.7282068653171954
aF1.0094151779509646
aF0.5546225012476186
aF0.8444183894558948
aa(lp367
a(lp368
ag0
(g35
g2
Ntp369
Rp370
(lp371
I8
aI946002817
ababag0
(g28
g2
Ntp372
Rp373
(lp374
(lp375
F-0.12545353855586164
aF-0.4156930440205136
aF0.3909788287510126
aF0.70948627778342
aF1.0762779174361417
aF0.5514467041917359
aF0.9496036431699402
aa(lp376
a(lp377
ag0
(g35
g2
Ntp378
Rp379
(lp380
I9
aI168878616
ababag0
(g28
g2
Ntp381
Rp382
(lp383
(lp384
F-0.13076209850298165
aF-0.4188463641311973
aF0.34461930750003955
aF0.6907656902496446
aF1.1431406569213185
aF0.5482709071358531
aF1.0547888968839856
aa(lp385
a(lp386
ag0
(g35
g2
Ntp387
Rp388
(lp389
I9
aI391754413
ababag0
(g28
g2
Ntp390
Rp391
(lp392
(lp393
F-0.13607065845010166
aF-0.421999684241881
aF0.2982597862490665
aF0.6720451027158693
aF1.2100033964064956
aF0.5450951100799704
aF1.159974150598031
aa(lp394
a(lp395
ag0
(g35
g2
Ntp396
Rp397
(lp398
I9
aI614630211
ababag0
(g28
g2
Ntp399
Rp400
(lp401
(lp402
F-0.14137921839722167
aF-0.42515300435256476
aF0.2519002649980934
aF0.653324515182094
aF1.2768661358916724
aF0.5419193130240876
aF1.2651594043120764
aa(lp403
a(lp404
ag0
(g35
g2
Ntp405
Rp406
(lp407
I9
aI837506010
ababag0
(g28
g2
Ntp408
Rp409
(lp410
(lp411
F-0.14668777834434168
aF-0.42830632446324846
aF0.2055407437471204
aF0.6346039276483186
aF1.3437288753768495
aF0.5387435159682048
aF1.3703446580261218
aa(lp412
a(lp413
ag0
(g35
g2
Ntp414
Rp415
(lp416
I10
aI60381809
ababag0
(g28
g2
Ntp417
Rp418
(lp419
(lp420
F-0.15369507577794214
aF-0.4295077987492823
aF0.16012229858595026
aF0.6218356479097521
aF1.3911860056996987
aF0.5435064503021367
aF1.4598649515360973
aa(lp421
a(lp422
ag0
(g35
g2
Ntp423
Rp424
(lp425
I10
aI239422396
ababag0
(g28
g2
Ntp426
Rp427
(lp428
(lp429
F-0.16070237321154263
aF-0.4307092730353162
aF0.11470385342478015
aF0.6090673681711855
aF1.438643136022548
aF0.5482693846360687
aF1.5493852450460726
aa(lp430
a(lp431
ag0
(g35
g2
Ntp432
Rp433
(lp434
I10
aI418462982
ababag0
(g28
g2
Ntp435
Rp436
(lp437
(lp438
F-0.16770967064514308
aF-0.43191074732135004
aF0.06928540826361002
aF0.5962990884326189
aF1.4861002663453973
aF0.5530323189700006
aF1.638905538556048
aa(lp439
a(lp440
ag0
(g35
g2
Ntp441
Rp442
(lp443
I10
aI597503570
ababag0
(g28
g2
Ntp444
Rp445
(lp446
(lp447
F-0.17471696807874357
aF-0.4331122216073839
aF0.02386696310243989
aF0.5835308086940524
aF1.5335573966682465
aF0.5577952533039325
aF1.7284258320660235
aa(lp448
a(lp449
ag0
(g35
g2
Ntp450
Rp451
(lp452
I10
aI776544157
ababag0
(g28
g2
Ntp453
Rp454
(lp455
(lp456
F-0.18172426551234402
aF-0.4343136958934178
aF-0.02155148205873023
aF0.5707625289554858
aF1.581014526991096
aF0.5625581876378645
aF1.817946125575999
aa(lp457
a(lp458
ag0
(g35
g2
Ntp459
Rp460
(lp461
I10
aI974316351
ababag0
(g28
g2
Ntp462
Rp463
(lp464
(lp465
F-0.1887315629459445
aF-0.4355151701794516
aF-0.06696992721990036
aF0.5579942492169193
aF1.6284716573139453
aF0.5673211219717964
aF1.9074664190859745
aa(lp466
a(lp467
ag0
(g35
g2
Ntp468
Rp469
(lp470
I11
aI233356938
ababag0
(g28
g2
Ntp471
Rp472
(lp473
(lp474
F-0.20433872155578658
aF-0.43146184413455285
aF-0.13227436669224676
aF0.5566987529946958
aF1.641440525311236
aF0.5982817176421384
aF1.9947519787387278
aa(lp475
a(lp476
ag0
(g35
g2
Ntp477
Rp478
(lp479
I11
aI535225232
ababag0
(g28
g2
Ntp480
Rp481
(lp482
(lp483
F-0.21994588016562863
aF-0.4274085180896541
aF-0.19757880616459317
aF0.5554032567724723
aF1.6544093933085269
aF0.6292423133124806
aF2.0820375383914813
aa(lp484
a(lp485
ag0
(g35
g2
Ntp486
Rp487
(lp488
I11
aI777093525
ababag0
(g28
g2
Ntp489
Rp490
(lp491
(lp492
F-0.23555303877547068
aF-0.42335519204475525
aF-0.26288324563693954
aF0.5541077605502488
aF1.6673782613058177
aF0.6602029089828227
aF2.1693230980442344
aa(lp493
a(lp494
ag0
(g35
g2
Ntp495
Rp496
(lp497
I12
aI18961820
ababag0
(g28
g2
Ntp498
Rp499
(lp500
(lp501
F-0.25116019738531276
aF-0.41930186599985647
aF-0.328187685109286
aF0.5528122643280253
aF1.6803471293031085
aF0.6911635046531648
aF2.256608657696988
aa(lp502
a(lp503
ag0
(g35
g2
Ntp504
Rp505
(lp506
I12
aI260830114
ababag0
(g28
g2
Ntp507
Rp508
(lp509
(lp510
F-0.2874707270644382
aF-0.40533967643610935
aF-0.45597333578457
aF0.5680781952692047
aF1.648068037810707
aF0.7769008901632931
aF2.384184896390285
aa(lp511
a(lp512
ag0
(g35
g2
Ntp513
Rp514
(lp515
I12
aI734110302
ababag0
(g28
g2
Ntp516
Rp517
(lp518
(lp519
F-0.30562599190400097
aF-0.39835858165423577
aF-0.519866161122212
aF0.5757111607397942
aF1.6319284920645063
aF0.8197695829183573
aF2.4479730157369333
aa(lp520
a(lp521
ag0
(g35
g2
Ntp522
Rp523
(lp524
I12
aI970750395
ababag0
(g28
g2
Ntp525
Rp526
(lp527
(lp528
F-0.32378125674356373
aF-0.3913774868723622
aF-0.583758986459854
aF0.5833441262103839
aF1.6157889463183057
aF0.8626382756734214
aF2.5117611350835816
aa(lp529
a(lp530
ag0
(g35
g2
Ntp531
Rp532
(lp533
I13
aI297390489
ababag0
(g28
g2
Ntp534
Rp535
(lp536
(lp537
F-0.34703273404256785
aF-0.378540854616539
aF-0.6448285835280873
aF0.6088340150665998
aF1.541432573085122
aF0.9293231625979297
aF2.5285543738180203
aa(lp538
a(lp539
ag0
(g35
g2
Ntp540
Rp541
(lp542
I13
aI645245067
ababag0
(g28
g2
Ntp543
Rp544
(lp545
(lp546
F-0.37028421134157197
aF-0.36570422236071587
aF-0.7058981805963205
aF0.6343239039228159
aF1.4670761998519382
aF0.996008049522438
aF2.545347612552459
aa(lp547
a(lp548
ag0
(g35
g2
Ntp549
Rp550
(lp551
I13
aI893099644
ababag0
(g28
g2
Ntp552
Rp553
(lp554
(lp555
F-0.3935356886405761
aF-0.3528675901048927
aF-0.7669677776645537
aF0.6598137927790318
aF1.3927198266187544
aF1.0626929364469464
aF2.5621408512868973
aa(lp556
a(lp557
ag0
(g35
g2
Ntp558
Rp559
(lp560
I14
aI140954222
ababag0
(g28
g2
Ntp561
Rp562
(lp563
(lp564
F-0.41678716593958015
aF-0.34003095784906956
aF-0.8280373747327869
aF0.6853036816352478
aF1.3183634533855708
aF1.1293778233714546
aF2.578934090021336
aa(lp565
a(lp566
ag0
(g35
g2
Ntp567
Rp568
(lp569
I14
aI388808799
ababag0
(g28
g2
Ntp570
Rp571
(lp572
(lp573
F-0.46329012053758833
aF-0.31435769333742325
aF-0.9501765688692534
aF0.7362834593476798
aF1.1696507069192035
aF1.2627475972204714
aF2.612520567490213
aa(lp574
a(lp575
ag0
(g35
g2
Ntp576
Rp577
(lp578
I14
aI884517954
ababag0
(g28
g2
Ntp579
Rp580
(lp581
(lp582
F-0.5097930751355966
aF-0.288684428825777
aF-1.0723157630057198
aF0.7872632370601118
aF1.020937960452836
aF1.3961173710694879
aF2.6461070449590904
aa(lp583
a(lp584
ag0
(g35
g2
Ntp585
Rp586
(lp587
I15
aI650227109
ababaabag0
(cmoveit_msgs.msg._MultiDOFJointTrajectory
MultiDOFJointTrajectory
p588
g2
Ntp589
Rp590
(lp591
g0
(g10
g2
Ntp592
Rp593
(lp594
I0
ag0
(g14
g2
Ntp595
Rp596
(lp597
I0
aI0
abaS''
p598
abag19
a(lp599
abab.