ccopy_reg
_reconstructor
p0
(cmoveit_msgs.msg._RobotTrajectory
RobotTrajectory
p1
c__builtin__
object
p2
Ntp3
Rp4
(lp5
g0
(ctrajectory_msgs.msg._JointTrajectory
JointTrajectory
p6
g2
Ntp7
Rp8
(lp9
g0
(cstd_msgs.msg._Header
Header
p10
g2
Ntp11
Rp12
(lp13
I0
ag0
(cgenpy.rostime
Time
p14
g2
Ntp15
Rp16
(lp17
I0
aI0
abaS'/base'
p18
aba(lp19
S'left_s0'
p20
aS'left_s1'
p21
aS'left_e0'
p22
aS'left_e1'
p23
aS'left_w0'
p24
aS'left_w1'
p25
aS'left_w2'
p26
aa(lp27
g0
(ctrajectory_msgs.msg._JointTrajectoryPoint
JointTrajectoryPoint
p28
g2
Ntp29
Rp30
(lp31
(lp32
F0.8417719563903809
aF0.38656315810546876
aF1.751806057763672
aF1.041956448980713
aF1.1232574306457521
aF-1.5013836944274903
aF-0.6028544489501954
aa(lp33
a(lp34
ag0
(cgenpy.rostime
Duration
p35
g2
Ntp36
Rp37
(lp38
I0
aI200000000
ababag0
(g28
g2
Ntp39
Rp40
(lp41
(lp42
F0.8415006076161414
aF0.37956035084029854
aF1.7562000992557179
aF1.045202493476798
aF1.1262166398946067
aF-1.5100354396282067
aF-0.6010783054285614
aa(lp43
a(lp44
ag0
(g35
g2
Ntp45
Rp46
(lp47
I0
aI400000000
ababag0
(g28
g2
Ntp48
Rp49
(lp50
(lp51
F0.8413474476403107
aF0.37251811598388945
aF1.7606477457856113
aF1.0481424318884494
aF1.1292196549653233
aF-1.5186197908333414
aF-0.5994300643918524
aa(lp52
a(lp53
ag0
(g35
g2
Ntp54
Rp55
(lp56
I0
aI600000000
ababag0
(g28
g2
Ntp57
Rp58
(lp59
(lp60
F0.8413099600896443
aF0.3654359850437435
aF1.7651452815453492
aF1.0507778475429306
aF1.1322623102652851
aF-1.527137386912856
aF-0.5979090117061328
aa(lp61
a(lp62
ag0
(g35
g2
Ntp63
Rp64
(lp65
I0
aI800000000
ababag0
(g28
g2
Ntp66
Rp67
(lp68
(lp69
F0.841385800306978
aF0.3583134571938172
aF1.7696890438833217
aF1.0531100741444206
aF1.135340512725744
aF-1.5355888156813116
aF-0.596514623845852
aa(lp70
a(lp71
ag0
(g35
g2
Ntp72
Rp73
(lp74
I1
aI0
ababag0
(g28
g2
Ntp75
Rp76
(lp77
(lp78
F0.8415727826004513
aF0.3511500015572819
aF1.774275416354456
aF1.055140217570484
aF1.1384502336665416
aF-1.5439746164032575
aF-0.595246554312734
aa(lp79
a(lp80
ag0
(g35
g2
Ntp81
Rp82
(lp83
I1
aI199999999
ababag0
(g28
g2
Ntp84
Rp85
(lp86
(lp87
F0.8418688745987343
aF0.34394505720357205
aF1.7789008236175705
aF1.0568691635153562
aF1.1415875026795375
aF-1.5522952808132948
aF-0.5941046274146321
aa(lp88
a(lp89
ag0
(g35
g2
Ntp90
Rp91
(lp92
I1
aI399999999
ababag0
(g28
g2
Ntp93
Rp94
(lp95
(lp96
F0.842272192355996
aF0.33669803300150775
aF1.7835617266758592
aF1.0582975838366875
aF1.1447484020054197
aF-1.5605512539170385
aF-0.5930888329360763
aa(lp97
a(lp98
ag0
(g35
g2
Ntp99
Rp100
(lp101
I1
aI599999999
ababag0
(g28
g2
Ntp102
Rp103
(lp104
(lp105
F0.842780996159451
aF0.32940830733076687
aF1.78825461841131
aF1.0594259416743255
aF1.147929061349417
aF-1.568742934582134
aF-0.5921993216448574
aa(lp106
a(lp107
ag0
(g35
g2
Ntp108
Rp109
(lp110
I1
aI799999999
ababag0
(g28
g2
Ntp111
Rp112
(lp113
(lp114
F0.8415124922588458
aF0.3130891968622585
aF1.7796426399861356
aF1.060132433521695
aF1.1653548764386388
aF-1.57079632679
aF-0.5887234401582815
aa(lp115
a(lp116
ag0
(g35
g2
Ntp117
Rp118
(lp119
I1
aI999999999
ababag0
(g28
g2
Ntp120
Rp121
(lp122
(lp123
F0.8398345893819366
aF0.2938593255430711
aF1.7669196490939034
aF1.0605256209964946
aF1.18732143687404
aF-1.57079632679
aF-0.5846859069519699
aa(lp124
a(lp125
ag0
(g35
g2
Ntp126
Rp127
(lp128
I2
aI199999999
ababag0
(g28
g2
Ntp129
Rp130
(lp131
(lp132
F0.8383887576731459
aF0.27477849020237805
aF1.7546129150485206
aF1.0606480002394687
aF1.208992744101924
aF-1.57079632679
aF-0.581030731130889
aa(lp133
a(lp134
ag0
(g35
g2
Ntp135
Rp136
(lp137
I2
aI399999998
ababag0
(g28
g2
Ntp138
Rp139
(lp140
(lp141
F0.8371613465250708
aF0.2558340096160905
aF1.742673696086331
aF1.0604966486833052
aF1.2304000459274476
aF-1.57079632679
aF-0.5777490351783348
aa(lp142
a(lp143
ag0
(g35
g2
Ntp144
Rp145
(lp146
I2
aI600000000
ababaabag0
(cmoveit_msgs.msg._MultiDOFJointTrajectory
MultiDOFJointTrajectory
p147
g2
Ntp148
Rp149
(lp150
g0
(g10
g2
Ntp151
Rp152
(lp153
I0
ag0
(g14
g2
Ntp154
Rp155
(lp156
I0
aI0
abaS''
p157
abag19
a(lp158
abab.