ccopy_reg
_reconstructor
p0
(cmoveit_msgs.msg._RobotTrajectory
RobotTrajectory
p1
c__builtin__
object
p2
Ntp3
Rp4
(lp5
g0
(ctrajectory_msgs.msg._JointTrajectory
JointTrajectory
p6
g2
Ntp7
Rp8
(lp9
g0
(cstd_msgs.msg._Header
Header
p10
g2
Ntp11
Rp12
(lp13
I0
ag0
(cgenpy.rostime
Time
p14
g2
Ntp15
Rp16
(lp17
I0
aI0
abaS'/base'
p18
aba(lp19
S'right_s0'
p20
aS'right_s1'
p21
aS'right_e0'
p22
aS'right_e1'
p23
aS'right_w0'
p24
aS'right_w1'
p25
aS'right_w2'
p26
aa(lp27
g0
(ctrajectory_msgs.msg._JointTrajectoryPoint
JointTrajectoryPoint
p28
g2
Ntp29
Rp30
(lp31
(lp32
F-0.26491862060750904
aF-0.4033454148207508
aF-1.1253547071048515
aF1.4801755865390303
aF-1.9969749763069455
aF-1.1784689325838937
aF-0.9184921995408006
aa(lp33
a(lp34
ag0
(cgenpy.rostime
Duration
p35
g2
Ntp36
Rp37
(lp38
I0
aI0
ababag0
(g28
g2
Ntp39
Rp40
(lp41
(lp42
F-0.26636919155942185
aF-0.41303570756565783
aF-1.1246409488110785
aF1.4645218167637577
aF-2.005061055740127
aF-1.175403786967617
aF-0.9313117391318324
aa(lp43
a(lp44
ag0
(g35
g2
Ntp45
Rp46
(lp47
I0
aI255765878
ababag0
(g28
g2
Ntp48
Rp49
(lp50
(lp51
F-0.26781976251133466
aF-0.42272600031056484
aF-1.1239271905173056
aF1.4488680469884851
aF-2.0131471351733086
aF-1.1723386413513404
aF-0.9441312787228641
aa(lp52
a(lp53
ag0
(g35
g2
Ntp54
Rp55
(lp56
I0
aI361020513
ababag0
(g28
g2
Ntp57
Rp58
(lp59
(lp60
F-0.26927033346324747
aF-0.4324162930554718
aF-1.1232134322235328
aF1.4332142772132128
aF-2.02123321460649
aF-1.1692734957350637
aF-0.9569508183138957
aa(lp61
a(lp62
ag0
(g35
g2
Ntp63
Rp64
(lp65
I0
aI465211976
ababag0
(g28
g2
Ntp66
Rp67
(lp68
(lp69
F-0.27072090441516033
aF-0.4421065858003788
aF-1.1224996739297597
aF1.4175605074379403
aF-2.0293192940396714
aF-1.166208350118787
aF-0.9697703579049275
aa(lp70
a(lp71
ag0
(g35
g2
Ntp72
Rp73
(lp74
I0
aI693188901
ababag0
(g28
g2
Ntp75
Rp76
(lp77
(lp78
F-0.2716825189118638
aF-0.4512281045435041
aF-1.091404209089606
aF1.4006224249023225
aF-2.0304739187153515
aF-1.1309080010006585
aF-0.9985882084530965
aa(lp79
a(lp80
ag0
(g35
g2
Ntp81
Rp82
(lp83
I0
aI950856730
ababag0
(g28
g2
Ntp84
Rp85
(lp86
(lp87
F-0.2726441334085672
aF-0.4603496232866294
aF-1.060308744249452
aF1.3836843423667045
aF-2.0316285433910313
aF-1.09560765188253
aF-1.0274060590012655
aa(lp88
a(lp89
ag0
(g35
g2
Ntp90
Rp91
(lp92
I1
aI99768368
ababag0
(g28
g2
Ntp93
Rp94
(lp95
(lp96
F-0.2736057479052706
aF-0.46947114202975465
aF-1.0292132794092983
aF1.3667462598310864
aF-2.0327831680667114
aF-1.0603073027644014
aF-1.0562239095494346
aa(lp97
a(lp98
ag0
(g35
g2
Ntp99
Rp100
(lp101
I1
aI217436199
ababag0
(g28
g2
Ntp102
Rp103
(lp104
(lp105
F-0.27456736240197405
aF-0.47859266077287993
aF-0.9981178145691446
aF1.3498081772954686
aF-2.0339377927423916
aF-1.025006953646273
aF-1.0850417600976034
aa(lp106
a(lp107
ag0
(g35
g2
Ntp108
Rp109
(lp110
I1
aI335104029
ababag0
(g28
g2
Ntp111
Rp112
(lp113
(lp114
F-0.2749833144623439
aF-0.4858337525028795
aF-0.9555042939900433
aF1.3349806913367264
aF-2.031094921578087
aF-0.9778797039092795
aF-1.117909936863582
aa(lp115
a(lp116
ag0
(g35
g2
Ntp117
Rp118
(lp119
I1
aI492931884
ababag0
(g28
g2
Ntp120
Rp121
(lp122
(lp123
F-0.27539926652271374
aF-0.49307484423287906
aF-0.9128907734109419
aF1.3201532053779839
aF-2.0282520504137826
aF-0.930752454172286
aF-1.1507781136295607
aa(lp124
a(lp125
ag0
(g35
g2
Ntp126
Rp127
(lp128
I1
aI667272023
ababag0
(g28
g2
Ntp129
Rp130
(lp131
(lp132
F-0.27581521858308355
aF-0.5003159359628786
aF-0.8702772528318405
aF1.3053257194192414
aF-2.025409179249478
aF-0.8836252044352926
aF-1.1836462903955394
aa(lp133
a(lp134
ag0
(g35
g2
Ntp135
Rp136
(lp137
I1
aI985099876
ababag0
(g28
g2
Ntp138
Rp139
(lp140
(lp141
F-0.30338702233302367
aF-0.4875872663972819
aF-0.878545573882033
aF1.261259409721288
aF-2.0012845444328096
aF-0.878303322299382
aF-1.18417784280518
aa(lp142
a(lp143
ag0
(g35
g2
Ntp144
Rp145
(lp146
I2
aI298308432
ababag0
(g28
g2
Ntp147
Rp148
(lp149
(lp150
F-0.27619791169087193
aF-0.5386752204500641
aF-0.6056060299962465
aF1.222970620820745
aF-2.002629686625962
aF-0.5924694282259417
aF-1.3806275934719374
aa(lp151
a(lp152
ag0
(g35
g2
Ntp153
Rp154
(lp155
I3
aI319195630
ababag0
(g28
g2
Ntp156
Rp157
(lp158
(lp159
F-0.27616465273829044
aF-0.56979341320725
aF-0.3835483277397538
aF1.155443008180991
aF-1.9826930651667505
aF-0.3484409017535842
aF-1.5447407197823568
aa(lp160
a(lp161
ag0
(g35
g2
Ntp162
Rp163
(lp164
I4
aI141631565
ababag0
(g28
g2
Ntp165
Rp166
(lp167
(lp168
F-0.27580983102026013
aF-0.5931388637743109
aF-0.21132477433842645
aF1.1041813655500887
aF-1.9666471032914916
aF-0.1593608684158051
aF-1.6712420502037761
aa(lp169
a(lp170
ag0
(g35
g2
Ntp171
Rp172
(lp173
I4
aI779496577
ababag0
(g28
g2
Ntp174
Rp175
(lp176
(lp177
F-0.2754550093022299
aF-0.6164843143413719
aF-0.03910122093709914
aF1.0529197229191865
aF-1.9506011414162328
aF0.029719164921974045
aF-1.7977433806251955
aa(lp178
a(lp179
ag0
(g35
g2
Ntp180
Rp181
(lp182
I5
aI417361591
ababag0
(g28
g2
Ntp183
Rp184
(lp185
(lp186
F-0.27445706205330195
aF-0.6242842805281831
aF0.0334540347538975
aF1.0341900203059873
aF-1.9423364987088796
aF0.10890221199059653
aF-1.8490211192686146
aa(lp187
a(lp188
ag0
(g35
g2
Ntp189
Rp190
(lp191
I5
aI686084759
ababag0
(g28
g2
Ntp192
Rp193
(lp194
(lp195
F-0.273459114804374
aF-0.6320842467149943
aF0.10600929044489414
aF1.0154603176927883
aF-1.9340718560015264
aF0.18808525905921902
aF-1.9002988579120335
aa(lp196
a(lp197
ag0
(g35
g2
Ntp198
Rp199
(lp200
I5
aI954807928
ababag0
(g28
g2
Ntp201
Rp202
(lp203
(lp204
F-0.269269278518597
aF-0.6297424888029582
aF0.14806457553813332
aF1.0137004272885934
aF-1.9245191800232533
aF0.2323995895490751
aF-1.9240476014217753
aa(lp205
a(lp206
ag0
(g35
g2
Ntp207
Rp208
(lp209
I6
aI110568245
ababag0
(g28
g2
Ntp210
Rp211
(lp212
(lp213
F-0.26507944223282
aF-0.6274007308909222
aF0.1901198606313725
aF1.0119405368843983
aF-1.91496650404498
aF0.2767139200389312
aF-1.9477963449315174
aa(lp214
a(lp215
ag0
(g35
g2
Ntp216
Rp217
(lp218
I6
aI266328560
ababag0
(g28
g2
Ntp219
Rp220
(lp221
(lp222
F-0.2551489534042424
aF-0.6203210091614415
aF0.27084350223942744
aF1.0115883308805085
aF-1.8950564423569607
aF0.36118780364041114
aF-1.9917106899519055
aa(lp223
a(lp224
ag0
(g35
g2
Ntp225
Rp226
(lp227
I6
aI565305009
ababag0
(g28
g2
Ntp228
Rp229
(lp230
(lp231
F-0.2452184645756647
aF-0.6132412874319607
aF0.3515671438474824
aF1.0112361248766184
aF-1.8751463806689417
aF0.4456616872418911
aF-2.0356250349722935
aa(lp232
a(lp233
ag0
(g35
g2
Ntp234
Rp235
(lp236
I6
aI864281460
ababag0
(g28
g2
Ntp237
Rp238
(lp239
(lp240
F-0.2353460494248666
aF-0.6059203703320051
aF0.4282987280994659
aF1.0115927411738994
aF-1.8558612947626312
aF0.5258240345827274
aF-2.0769866683590017
aa(lp241
a(lp242
ag0
(g35
g2
Ntp243
Rp244
(lp245
I7
aI148472513
ababag0
(g28
g2
Ntp246
Rp247
(lp248
(lp249
F-0.22547363427406847
aF-0.5985994532320493
aF0.5050303123514495
aF1.0119493574711806
aF-1.8365762088563207
aF0.6059863819235638
aF-2.11834830174571
aa(lp250
a(lp251
ag0
(g35
g2
Ntp252
Rp253
(lp254
I7
aI432663566
ababag0
(g28
g2
Ntp255
Rp256
(lp257
(lp258
F-0.22145801902162998
aF-0.5955341092085884
aF0.5351094253764744
aF1.0123159339704988
aF-1.8288984602231735
aF0.637366103631489
aF-2.1344389103544126
aa(lp259
a(lp260
ag0
(g35
g2
Ntp261
Rp262
(lp263
I7
aI544067687
ababag0
(g28
g2
Ntp264
Rp265
(lp266
(lp267
F-0.2174424037691915
aF-0.5924687651851275
aF0.5651885384014994
aF1.0126825104698172
aF-1.821220711590026
aF0.6687458253394144
aF-2.1505295189631153
aa(lp268
a(lp269
ag0
(g35
g2
Ntp270
Rp271
(lp272
I7
aI655471811
ababag0
(g28
g2
Ntp273
Rp274
(lp275
(lp276
F-0.20756834085319842
aF-0.5829554411707186
aF0.6065294146823557
aF1.019024965164344
aF-1.8076415705805227
aF0.7106820967371206
aF-2.1697488432584446
aa(lp277
a(lp278
ag0
(g35
g2
Ntp279
Rp280
(lp281
I7
aI808586166
ababag0
(g28
g2
Ntp282
Rp283
(lp284
(lp285
F-0.19769427793720531
aF-0.5734421171563098
aF0.6478702909632119
aF1.0253674198588705
aF-1.7940624295710195
aF0.7526183681348269
aF-2.1889681675537735
aa(lp286
a(lp287
ag0
(g35
g2
Ntp288
Rp289
(lp290
I7
aI961700523
ababag0
(g28
g2
Ntp291
Rp292
(lp293
(lp294
F-0.1702465197957434
aF-0.5467772600835106
aF0.7583871649826897
aF1.043651670741777
aF-1.757073166535641
aF0.8644503645450058
aF-2.2397159480003603
aa(lp295
a(lp296
ag0
(g35
g2
Ntp297
Rp298
(lp299
I8
aI371022280
ababag0
(g28
g2
Ntp300
Rp301
(lp302
(lp303
F-0.14279876165428146
aF-0.5201124030107113
aF0.8689040390021673
aF1.0619359216246833
aF-1.7200839035002624
aF0.9762823609551847
aF-2.2904637284469476
aa(lp304
a(lp305
ag0
(g35
g2
Ntp306
Rp307
(lp308
I8
aI780344034
ababag0
(g28
g2
Ntp309
Rp310
(lp311
(lp312
F-0.09994247185259651
aF-0.47595609534327593
aF0.9874378417898282
aF1.0982025729192912
aF-1.6717913328895002
aF1.0927397100280594
aF-2.337090016070733
aa(lp313
a(lp314
ag0
(g35
g2
Ntp315
Rp316
(lp317
I9
aI219358120
ababag0
(g28
g2
Ntp318
Rp319
(lp320
(lp321
F-0.057086182050911566
aF-0.4317997876758406
aF1.105971644577489
aF1.1344692242138992
aF-1.623498762278738
aF1.209197059100934
aF-2.383716303694519
aa(lp322
a(lp323
ag0
(g35
g2
Ntp324
Rp325
(lp326
I9
aI658372203
ababag0
(g28
g2
Ntp327
Rp328
(lp329
(lp330
F-0.0009865241542494005
aF-0.3698121118775236
aF1.171363307162895
aF1.1947588801435305
aF-1.5760096985430834
aF1.2650093884867273
aF-2.3905711495214437
aa(lp331
a(lp332
ag0
(g35
g2
Ntp333
Rp334
(lp335
I9
aI900563546
ababag0
(g28
g2
Ntp336
Rp337
(lp338
(lp339
F0.055113133742412765
aF-0.3078244360792066
aF1.2367549697483011
aF1.2550485360731618
aF-1.5285206348074287
aF1.3208217178725206
aF-2.3974259953483688
aa(lp340
a(lp341
ag0
(g35
g2
Ntp342
Rp343
(lp344
I10
aI192754889
ababag0
(g28
g2
Ntp345
Rp346
(lp347
(lp348
F0.10565793511491786
aF-0.2504307005037221
aF1.2625049488794966
aF1.3140987265886388
aF-1.4915467053502383
aF1.3354066055853016
aF-2.383588830716323
aa(lp349
a(lp350
ag0
(g35
g2
Ntp351
Rp352
(lp353
I10
aI451459298
ababag0
(g28
g2
Ntp354
Rp355
(lp356
(lp357
F0.15620273648742294
aF-0.19303696492823763
aF1.2882549280106919
aF1.3731489171041158
aF-1.4545727758930478
aF1.3499914932980825
aF-2.3697516660842766
aa(lp358
a(lp359
ag0
(g35
g2
Ntp360
Rp361
(lp362
I10
aI710163707
ababag0
(g28
g2
Ntp363
Rp364
(lp365
(lp366
F0.18239445671663662
aF-0.16266247792929986
aF1.2878636804357204
aF1.4056971721562612
aF-1.437825608117678
aF1.3427665173519205
aF-2.3543019223311488
aa(lp367
a(lp368
ag0
(g35
g2
Ntp369
Rp370
(lp371
I10
aI866825697
ababag0
(g28
g2
Ntp372
Rp373
(lp374
(lp375
F0.20858617694585033
aF-0.1322879909303621
aF1.2874724328607488
aF1.4382454272084064
aF-1.421078440342308
aF1.3355415414057588
aF-2.338852178578021
aa(lp376
a(lp377
ag0
(g35
g2
Ntp378
Rp379
(lp380
I11
aI57374790
ababag0
(g28
g2
Ntp381
Rp382
(lp383
(lp384
F0.22260135660341834
aF-0.11542312821969765
aF1.2740105719326937
aF1.457542714528886
aF-1.4144446534078483
aF1.3174116336301256
aF-2.3225961452643524
aa(lp385
a(lp386
ag0
(g35
g2
Ntp387
Rp388
(lp389
I11
aI212226889
ababag0
(g28
g2
Ntp390
Rp391
(lp392
(lp393
F0.23661653626098633
aF-0.09855826550903321
aF1.2605487110046387
aF1.4768400018493653
aF-1.4078108664733888
aF1.2992817258544922
aF-2.306340111950684
aa(lp394
a(lp395
ag0
(g35
g2
Ntp396
Rp397
(lp398
I11
aI413698323
ababaabag0
(cmoveit_msgs.msg._MultiDOFJointTrajectory
MultiDOFJointTrajectory
p399
g2
Ntp400
Rp401
(lp402
g0
(g10
g2
Ntp403
Rp404
(lp405
I0
ag0
(g14
g2
Ntp406
Rp407
(lp408
I0
aI0
abaS''
p409
abag19
a(lp410
abab.