ccopy_reg
_reconstructor
p0
(cmoveit_msgs.msg._RobotTrajectory
RobotTrajectory
p1
c__builtin__
object
p2
Ntp3
Rp4
(lp5
g0
(ctrajectory_msgs.msg._JointTrajectory
JointTrajectory
p6
g2
Ntp7
Rp8
(lp9
g0
(cstd_msgs.msg._Header
Header
p10
g2
Ntp11
Rp12
(lp13
I0
ag0
(cgenpy.rostime
Time
p14
g2
Ntp15
Rp16
(lp17
I0
aI0
abaS'/base'
p18
aba(lp19
S'right_s0'
p20
aS'right_s1'
p21
aS'right_e0'
p22
aS'right_e1'
p23
aS'right_w0'
p24
aS'right_w1'
p25
aS'right_w2'
p26
aa(lp27
g0
(ctrajectory_msgs.msg._JointTrajectoryPoint
JointTrajectoryPoint
p28
g2
Ntp29
Rp30
(lp31
(lp32
F0.06979612576904297
aF-0.9813642079284669
aF1.1297768489868165
aF1.9301313241516114
aF-0.6887573729736328
aF0.981747703125
aF0.5004612314758301
aa(lp33
a(lp34
ag0
(cgenpy.rostime
Duration
p35
g2
Ntp36
Rp37
(lp38
I0
aI0
ababag0
(g28
g2
Ntp39
Rp40
(lp41
(lp42
F0.05581370487391281
aF-0.9621219046350562
aF1.066986130106907
aF1.8911185791333103
aF-0.6435245707090367
aF0.9932427102592633
aF0.5872804125463207
aa(lp43
a(lp44
ag0
(g35
g2
Ntp45
Rp46
(lp47
I0
aI422558218
ababag0
(g28
g2
Ntp48
Rp49
(lp50
(lp51
F0.04183128397878265
aF-0.9428796013416454
aF1.0041954112269975
aF1.8521058341150092
aF-0.5982917684444407
aF1.0047377173935264
aF0.6740995936168114
aa(lp52
a(lp53
ag0
(g35
g2
Ntp54
Rp55
(lp56
I0
aI659790856
ababag0
(g28
g2
Ntp57
Rp58
(lp59
(lp60
F0.02784886308365249
aF-0.9236372980482347
aF0.9414046923470881
aF1.813093089096708
aF-0.5530589661798445
aF1.0162327245277896
aF0.760918774687302
aa(lp61
a(lp62
ag0
(g35
g2
Ntp63
Rp64
(lp65
I0
aI892349074
ababag0
(g28
g2
Ntp66
Rp67
(lp68
(lp69
F0.013866442188522328
aF-0.904394994754824
aF0.8786139734671787
aF1.774080344078407
aF-0.5078261639152485
aF1.0277277316620528
aF0.8477379557577926
aa(lp70
a(lp71
ag0
(g35
g2
Ntp72
Rp73
(lp74
I1
aI124907292
ababag0
(g28
g2
Ntp75
Rp76
(lp77
(lp78
F-0.00011597870660783754
aF-0.8851526914614132
aF0.8158232545872692
aF1.7350675990601059
aF-0.46259336165065235
aF1.039222738796316
aF0.9345571368282833
aa(lp79
a(lp80
ag0
(g35
g2
Ntp81
Rp82
(lp83
I1
aI357465509
ababag0
(g28
g2
Ntp84
Rp85
(lp86
(lp87
F-0.014098399601737992
aF-0.8659103881680025
aF0.7530325357073598
aF1.6960548540418048
aF-0.41736055938605626
aF1.0507177459305792
aF1.0213763178987738
aa(lp88
a(lp89
ag0
(g35
g2
Ntp90
Rp91
(lp92
I1
aI590023728
ababag0
(g28
g2
Ntp93
Rp94
(lp95
(lp96
F-0.028080820496868157
aF-0.8466680848745917
aF0.6902418168274503
aF1.6570421090235037
aF-0.3721277571214602
aF1.0622127530648424
aF1.1081954989692646
aa(lp97
a(lp98
ag0
(g35
g2
Ntp99
Rp100
(lp101
I1
aI822581946
ababag0
(g28
g2
Ntp102
Rp103
(lp104
(lp105
F-0.04206324139199831
aF-0.827425781581181
aF0.627451097947541
aF1.6180293640052028
aF-0.3268949548568641
aF1.0737077601991056
aF1.1950146800397552
aa(lp106
a(lp107
ag0
(g35
g2
Ntp108
Rp109
(lp110
I2
aI55140163
ababag0
(g28
g2
Ntp111
Rp112
(lp113
(lp114
F-0.05604566228712848
aF-0.8081834782877703
aF0.5646603790676314
aF1.5790166189869017
aF-0.28166215259226796
aF1.0852027673333688
aF1.2818338611102458
aa(lp115
a(lp116
ag0
(g35
g2
Ntp117
Rp118
(lp119
I2
aI287698381
ababag0
(g28
g2
Ntp120
Rp121
(lp122
(lp123
F-0.07002808318225864
aF-0.7889411749943595
aF0.5018696601877219
aF1.5400038739686006
aF-0.23642935032767184
aF1.096697774467632
aF1.3686530421807366
aa(lp124
a(lp125
ag0
(g35
g2
Ntp126
Rp127
(lp128
I2
aI520256600
ababag0
(g28
g2
Ntp129
Rp130
(lp131
(lp132
F-0.08401050407738879
aF-0.7696988717009488
aF0.43907894130781255
aF1.5009911289502995
aF-0.19119654806307582
aF1.1081927816018953
aF1.455472223251227
aa(lp133
a(lp134
ag0
(g35
g2
Ntp135
Rp136
(lp137
I2
aI752814818
ababag0
(g28
g2
Ntp138
Rp139
(lp140
(lp141
F-0.09799292497251895
aF-0.750456568407538
aF0.3762882224279031
aF1.4619783839319984
aF-0.1459637457984797
aF1.1196877887361585
aF1.5422914043217177
aa(lp142
a(lp143
ag0
(g35
g2
Ntp144
Rp145
(lp146
I2
aI985373037
ababag0
(g28
g2
Ntp147
Rp148
(lp149
(lp150
F-0.11197534586764912
aF-0.7312142651141272
aF0.3134975035479936
aF1.4229656389136973
aF-0.1007309435338836
aF1.1311827958704217
aF1.6291105853922083
aa(lp151
a(lp152
ag0
(g35
g2
Ntp153
Rp154
(lp155
I3
aI217931254
ababag0
(g28
g2
Ntp156
Rp157
(lp158
(lp159
F-0.12595776676277928
aF-0.7119719618207165
aF0.25070678466808416
aF1.3839528938953962
aF-0.05549814126928749
aF1.142677803004685
aF1.7159297664626991
aa(lp160
a(lp161
ag0
(g35
g2
Ntp162
Rp163
(lp164
I3
aI450489473
ababag0
(g28
g2
Ntp165
Rp166
(lp167
(lp168
F-0.13994018765790944
aF-0.6927296585273057
aF0.18791606578817469
aF1.3449401488770951
aF-0.010265339004691376
aF1.1541728101389481
aF1.8027489475331897
aa(lp169
a(lp170
ag0
(g35
g2
Ntp171
Rp172
(lp173
I3
aI683047691
ababag0
(g28
g2
Ntp174
Rp175
(lp176
(lp177
F-0.1539226085530396
aF-0.673487355233895
aF0.1251253469082653
aF1.305927403858794
aF0.034967463259904664
aF1.1656678172732113
aF1.8895681286036803
aa(lp178
a(lp179
ag0
(g35
g2
Ntp180
Rp181
(lp182
I3
aI915605908
ababag0
(g28
g2
Ntp183
Rp184
(lp185
(lp186
F-0.16790502944816973
aF-0.6542450519404843
aF0.062334628028355925
aF1.266914658840493
aF0.0802002655245007
aF1.1771628244074746
aF1.9763873096741709
aa(lp187
a(lp188
ag0
(g35
g2
Ntp189
Rp190
(lp191
I4
aI148164127
ababag0
(g28
g2
Ntp192
Rp193
(lp194
(lp195
F-0.18188745034329992
aF-0.6350027486470735
aF-0.0004560908515536527
aF1.2279019138221918
aF0.12543306778909688
aF1.1886578315417378
aF2.0632064907446614
aa(lp196
a(lp197
ag0
(g35
g2
Ntp198
Rp199
(lp200
I4
aI380722344
ababag0
(g28
g2
Ntp201
Rp202
(lp203
(lp204
F-0.19586987123843005
aF-0.6157604453536628
aF-0.06324680973146303
aF1.1888891688038907
aF0.1706658700536929
aF1.2001528386760008
aF2.1500256718151523
aa(lp205
a(lp206
ag0
(g35
g2
Ntp207
Rp208
(lp209
I4
aI613280563
ababag0
(g28
g2
Ntp210
Rp211
(lp212
(lp213
F-0.20985229213356027
aF-0.5965181420602521
aF-0.1260375286113726
aF1.1498764237855896
aF0.2158986723182891
aF1.2116478458102642
aF2.236844852885643
aa(lp214
a(lp215
ag0
(g35
g2
Ntp216
Rp217
(lp218
I4
aI845838781
ababag0
(g28
g2
Ntp219
Rp220
(lp221
(lp222
F-0.2238347130286904
aF-0.5772758387668413
aF-0.188828247491282
aF1.1108636787672885
aF0.26113147458288516
aF1.2231428529445272
aF2.3236640339561334
aa(lp223
a(lp224
ag0
(g35
g2
Ntp225
Rp226
(lp227
I5
aI78396998
ababag0
(g28
g2
Ntp228
Rp229
(lp230
(lp231
F-0.23781713392382053
aF-0.5580335354734306
aF-0.25161896637119135
aF1.0718509337489877
aF0.3063642768474812
aF1.2346378600787904
aF2.4104832150266238
aa(lp232
a(lp233
ag0
(g35
g2
Ntp234
Rp235
(lp236
I5
aI310955217
ababag0
(g28
g2
Ntp237
Rp238
(lp239
(lp240
F-0.2517995548189507
aF-0.5387912321800199
aF-0.3144096852511009
aF1.0328381887306863
aF0.3515970791120774
aF1.2461328672130536
aF2.4973023960971146
aa(lp241
a(lp242
ag0
(g35
g2
Ntp243
Rp244
(lp245
I5
aI543513435
ababag0
(g28
g2
Ntp246
Rp247
(lp248
(lp249
F-0.26578197571408085
aF-0.5195489288866091
aF-0.3772004041310103
aF0.9938254437123853
aF0.3968298813766734
aF1.2576278743473168
aF2.5841215771676054
aa(lp250
a(lp251
ag0
(g35
g2
Ntp252
Rp253
(lp254
I5
aI776071652
ababag0
(g28
g2
Ntp255
Rp256
(lp257
(lp258
F-0.27976439660921104
aF-0.5003066255931984
aF-0.4399911230109197
aF0.9548126986940844
aF0.44206268364126944
aF1.26912288148158
aF2.6709407582380957
aa(lp259
a(lp260
ag0
(g35
g2
Ntp261
Rp262
(lp263
I6
aI8629872
ababag0
(g28
g2
Ntp264
Rp265
(lp266
(lp267
F-0.29374681750434123
aF-0.48106432229978763
aF-0.5027818418908293
aF0.9157999536757832
aF0.48729548590586563
aF1.2806178886158432
aF2.7577599393085865
aa(lp268
a(lp269
ag0
(g35
g2
Ntp270
Rp271
(lp272
I6
aI241188089
ababag0
(g28
g2
Ntp273
Rp274
(lp275
(lp276
F-0.30772923839947136
aF-0.4618220190063769
aF-0.5655725607707386
aF0.8767872086574822
aF0.5325282881704617
aF1.2921128957501065
aF2.8445791203790773
aa(lp277
a(lp278
ag0
(g35
g2
Ntp279
Rp280
(lp281
I6
aI473746307
ababag0
(g28
g2
Ntp282
Rp283
(lp284
(lp285
F-0.32171165929460155
aF-0.4425797157129661
aF-0.6283632796506482
aF0.837774463639181
aF0.5777610904350579
aF1.3036079028843697
aF2.931398301449568
aa(lp286
a(lp287
ag0
(g35
g2
Ntp288
Rp289
(lp290
I6
aI718167332
ababag0
(g28
g2
Ntp291
Rp292
(lp293
(lp294
F-0.3356940801897317
aF-0.4233374124195554
aF-0.6911539985305576
aF0.79876171862088
aF0.6229938926996539
aF1.3151029100186329
aF3.0182174825200585
aa(lp295
a(lp296
ag0
(g35
g2
Ntp297
Rp298
(lp299
I7
aI310725549
ababaabag0
(cmoveit_msgs.msg._MultiDOFJointTrajectory
MultiDOFJointTrajectory
p300
g2
Ntp301
Rp302
(lp303
g0
(g10
g2
Ntp304
Rp305
(lp306
I0
ag0
(g14
g2
Ntp307
Rp308
(lp309
I0
aI0
abaS''
p310
abag19
a(lp311
abab.