ccopy_reg
_reconstructor
p0
(cmoveit_msgs.msg._RobotTrajectory
RobotTrajectory
p1
c__builtin__
object
p2
Ntp3
Rp4
(lp5
g0
(ctrajectory_msgs.msg._JointTrajectory
JointTrajectory
p6
g2
Ntp7
Rp8
(lp9
g0
(cstd_msgs.msg._Header
Header
p10
g2
Ntp11
Rp12
(lp13
I0
ag0
(cgenpy.rostime
Time
p14
g2
Ntp15
Rp16
(lp17
I0
aI0
abaS'/base'
p18
aba(lp19
S'left_s0'
p20
aS'left_s1'
p21
aS'left_e0'
p22
aS'left_e1'
p23
aS'left_w0'
p24
aS'left_w1'
p25
aS'left_w2'
p26
aa(lp27
g0
(ctrajectory_msgs.msg._JointTrajectoryPoint
JointTrajectoryPoint
p28
g2
Ntp29
Rp30
(lp31
(lp32
F0.27611654150390624
aF0.4383350096374512
aF1.6382914795898438
aF1.459199222808838
aF1.0944952909057617
aF-1.566577877838135
aF-0.7271068926269532
aa(lp33
a(lp34
ag0
(cgenpy.rostime
Duration
p35
g2
Ntp36
Rp37
(lp38
I0
aI200000000
ababag0
(g28
g2
Ntp39
Rp40
(lp41
(lp42
F0.2749582826122294
aF0.42503316009453396
aF1.6384615882834301
aF1.4660715406354363
aF1.1079262934194194
aF-1.57079632679
aF-0.7225032306909658
aa(lp43
a(lp44
ag0
(g35
g2
Ntp45
Rp46
(lp47
I0
aI400000000
ababag0
(g28
g2
Ntp48
Rp49
(lp50
(lp51
F0.2734345917314033
aF0.4060758606910844
aF1.633499304179789
aF1.4727089640610043
aF1.1275206560260767
aF-1.57079632679
aF-0.7160683235089303
aa(lp52
a(lp53
ag0
(g35
g2
Ntp54
Rp55
(lp56
I0
aI600000000
ababag0
(g28
g2
Ntp57
Rp58
(lp59
(lp60
F0.2720201502206356
aF0.3873652309556888
aF1.629043872270248
aF1.4790680729393786
aF1.1468017799526322
aF-1.57079632679
aF-0.7100082466154948
aa(lp61
a(lp62
ag0
(g35
g2
Ntp63
Rp64
(lp65
I0
aI800000000
ababag0
(g28
g2
Ntp66
Rp67
(lp68
(lp69
F0.27070215032764866
aF0.36888095500601675
aF1.6250533635419233
aF1.4851479202999731
aF1.1657990418250415
aF-1.57079632679
aF-0.7043097341417176
aa(lp70
a(lp71
ag0
(g35
g2
Ntp72
Rp73
(lp74
I1
aI0
ababag0
(g28
g2
Ntp75
Rp76
(lp77
(lp78
F0.269469696949485
aF0.350609742727928
aF1.6214945904110911
aF1.4909477000225564
aF1.1845332784199407
aF-1.57079632679
aF-0.6989626734788756
aa(lp79
a(lp80
ag0
(g35
g2
Ntp81
Rp82
(lp83
I1
aI199999999
ababag0
(g28
g2
Ntp84
Rp85
(lp86
(lp87
F0.268313018740109
aF0.33253720506936413
aF1.6183351911139603
aF1.496466784877734
aF1.2030257053386262
aF-1.57079632679
aF-0.6939572202633336
aa(lp88
a(lp89
ag0
(g35
g2
Ntp90
Rp91
(lp92
I1
aI399999999
ababag0
(g28
g2
Ntp93
Rp94
(lp95
(lp96
F0.26722345611563664
aF0.3146498342721803
aF1.6155452438468965
aF1.5017046767681494
aF1.2212958552401192
aF-1.57079632679
aF-0.6892844246938846
aa(lp97
a(lp98
ag0
(g35
g2
Ntp99
Rp100
(lp101
I1
aI599999999
ababag0
(g28
g2
Ntp102
Rp103
(lp104
(lp105
F0.2661933195251488
aF0.2969349123354489
aF1.6130969687803676
aF1.5066609815524976
aF1.239361756124576
aF-1.57079632679
aF-0.6849361431088058
aa(lp106
a(lp107
ag0
(g35
g2
Ntp108
Rp109
(lp110
I1
aI799999999
ababag0
(g28
g2
Ntp111
Rp112
(lp113
(lp114
F0.2652157694539968
aF0.2793804286842839
aF1.6109644696234162
aF1.5113353884648466
aF1.2572400899055778
aF-1.57079632679
aF-0.6809049609632579
aa(lp115
a(lp116
ag0
(g35
g2
Ntp117
Rp118
(lp119
I1
aI999999999
ababag0
(g28
g2
Ntp120
Rp121
(lp122
(lp123
F0.2642847145317463
aF0.26197500743757457
aF1.6091235098463894
aF1.5157276532605142
aF1.2749463324037884
aF-1.57079632679
aF-0.6771841260011596
aa(lp124
a(lp125
ag0
(g35
g2
Ntp126
Rp127
(lp128
I2
aI199999999
ababag0
(g28
g2
Ntp129
Rp130
(lp131
(lp132
F0.2633946054676094
aF0.24470547583854785
aF1.607549236169174
aF1.519837620844098
aF1.2924973487472446
aF-1.57079632679
aF-0.6737669524709872
aa(lp133
a(lp134
ag0
(g35
g2
Ntp135
Rp136
(lp137
I2
aI399999998
ababag0
(g28
g2
Ntp138
Rp139
(lp140
(lp141
F0.2625408306754656
aF0.22756607114129634
aF1.60622416819961
aF1.52366507217352
aF1.3099018234943125
aF-1.57079632679
aF-0.6706489092025285
aa(lp142
a(lp143
ag0
(g35
g2
Ntp144
Rp145
(lp146
I2
aI600000000
ababaabag0
(cmoveit_msgs.msg._MultiDOFJointTrajectory
MultiDOFJointTrajectory
p147
g2
Ntp148
Rp149
(lp150
g0
(g10
g2
Ntp151
Rp152
(lp153
I0
ag0
(g14
g2
Ntp154
Rp155
(lp156
I0
aI0
abaS''
p157
abag19
a(lp158
abab.