ccopy_reg
_reconstructor
p0
(cmoveit_msgs.msg._RobotTrajectory
RobotTrajectory
p1
c__builtin__
object
p2
Ntp3
Rp4
(lp5
g0
(ctrajectory_msgs.msg._JointTrajectory
JointTrajectory
p6
g2
Ntp7
Rp8
(lp9
g0
(cstd_msgs.msg._Header
Header
p10
g2
Ntp11
Rp12
(lp13
I0
ag0
(cgenpy.rostime
Time
p14
g2
Ntp15
Rp16
(lp17
I0
aI0
abaS'/base'
p18
aba(lp19
S'left_s0'
p20
aS'left_s1'
p21
aS'left_e0'
p22
aS'left_e1'
p23
aS'left_w0'
p24
aS'left_w1'
p25
aS'left_w2'
p26
aa(lp27
g0
(ctrajectory_msgs.msg._JointTrajectoryPoint
JointTrajectoryPoint
p28
g2
Ntp29
Rp30
(lp31
(lp32
F-0.3175340227294922
aF-0.4195437450073242
aF-0.7677573834594728
aF1.609912835046387
aF1.0707185887207031
aF0.8206797205810548
aF0.7148350463378906
aa(lp33
a(lp34
ag0
(cgenpy.rostime
Duration
p35
g2
Ntp36
Rp37
(lp38
I0
aI0
ababag0
(g28
g2
Ntp39
Rp40
(lp41
(lp42
F-0.3450870692999598
aF-0.4443985465967404
aF-0.7652991197609567
aF1.6309249180004701
aF1.0750370616814875
aF0.8153736696000775
aF0.6866061841218736
aa(lp43
a(lp44
ag0
(g35
g2
Ntp45
Rp46
(lp47
I0
aI242048320
ababag0
(g28
g2
Ntp48
Rp49
(lp50
(lp51
F-0.37264011587042734
aF-0.4692533481861566
aF-0.7628408560624407
aF1.6519370009545535
aF1.079355534642272
aF0.8100676186191004
aF0.6583773219058566
aa(lp52
a(lp53
ag0
(g35
g2
Ntp54
Rp55
(lp56
I0
aI377612886
ababag0
(g28
g2
Ntp57
Rp58
(lp59
(lp60
F-0.4001931624408949
aF-0.49410814977557277
aF-0.7603825923639247
aF1.6729490839086367
aF1.0836740076030567
aF0.8047615676381232
aF0.6301484596898397
aa(lp61
a(lp62
ag0
(g35
g2
Ntp63
Rp64
(lp65
I0
aI482753373
ababag0
(g28
g2
Ntp66
Rp67
(lp68
(lp69
F-0.4277462090113625
aF-0.5189629513649889
aF-0.7579243286654087
aF1.69396116686272
aF1.087992480563841
aF0.799455516657146
aF0.6019195974738227
aa(lp70
a(lp71
ag0
(g35
g2
Ntp72
Rp73
(lp74
I0
aI584801693
ababag0
(g28
g2
Ntp75
Rp76
(lp77
(lp78
F-0.44776072302199116
aF-0.5379668696774811
aF-0.7553661500053829
aF1.709871721996885
aF1.0893967420111408
aF0.7942825764374934
aF0.5800598141511912
aa(lp79
a(lp80
ag0
(g35
g2
Ntp81
Rp82
(lp83
I0
aI663489878
ababag0
(g28
g2
Ntp84
Rp85
(lp86
(lp87
F-0.4677752370326198
aF-0.5569707879899732
aF-0.752807971345357
aF1.72578227713105
aF1.0908010034584406
aF0.7891096362178409
aF0.5582000308285596
aa(lp88
a(lp89
ag0
(g35
g2
Ntp90
Rp91
(lp92
I0
aI754844418
ababag0
(g28
g2
Ntp93
Rp94
(lp95
(lp96
F-0.48778975104324845
aF-0.5759747063024654
aF-0.7502497926853313
aF1.741692832265215
aF1.0922052649057403
aF0.7839366959981884
aF0.536340247505928
aa(lp97
a(lp98
ag0
(g35
g2
Ntp99
Rp100
(lp101
I0
aI868170366
ababag0
(g28
g2
Ntp102
Rp103
(lp104
(lp105
F-0.5078042650538771
aF-0.5949786246149577
aF-0.7476916140253055
aF1.7576033873993802
aF1.09360952635304
aF0.7787637557785357
aF0.5144804641832965
aa(lp106
a(lp107
ag0
(g35
g2
Ntp108
Rp109
(lp110
I1
aI42298195
ababag0
(g28
g2
Ntp111
Rp112
(lp113
(lp114
F-0.5127417139448278
aF-0.6022807763736018
aF-0.7449336054422602
aF1.7633108868937086
aF1.0891853647733705
aF0.7738570370815325
aF0.5053588386474358
aa(lp115
a(lp116
ag0
(g35
g2
Ntp117
Rp118
(lp119
I1
aI157052599
ababag0
(g28
g2
Ntp120
Rp121
(lp122
(lp123
F-0.5176791628357786
aF-0.609582928132246
aF-0.7421755968592147
aF1.769018386388037
aF1.0847612031937008
aF0.7689503183845292
aF0.4962372131115751
aa(lp124
a(lp125
ag0
(g35
g2
Ntp126
Rp127
(lp128
I1
aI230174818
ababag0
(g28
g2
Ntp129
Rp130
(lp131
(lp132
F-0.5226166117267294
aF-0.6168850798908901
aF-0.7394175882761694
aF1.7747258858823656
aF1.080337041614031
aF0.764043599687526
aF0.4871155875757144
aa(lp133
a(lp134
ag0
(g35
g2
Ntp135
Rp136
(lp137
I1
aI307904525
ababag0
(g28
g2
Ntp138
Rp139
(lp140
(lp141
F-0.5275540606176801
aF-0.6241872316495343
aF-0.7366595796931241
aF1.780433385376694
aF1.0759128800343614
aF0.7591368809905228
aF0.4779939620398536
aa(lp142
a(lp143
ag0
(g35
g2
Ntp144
Rp145
(lp146
I1
aI446329098
ababag0
(g28
g2
Ntp147
Rp148
(lp149
(lp150
F-0.524952976948792
aF-0.6256385001312544
aF-0.733801656148569
aF1.7810393570511043
aF1.068574506941207
aF0.7543632730548442
aF0.4752414153973783
aa(lp151
a(lp152
ag0
(g35
g2
Ntp153
Rp154
(lp155
I1
aI550790343
ababag0
(g28
g2
Ntp156
Rp157
(lp158
(lp159
F-0.5223518932799037
aF-0.6270897686129746
aF-0.7309437326040139
aF1.7816453287255145
aF1.0612361338480525
aF0.7495896651191657
aF0.47248886875490304
aa(lp160
a(lp161
ag0
(g35
g2
Ntp162
Rp163
(lp164
I1
aI616647509
ababag0
(g28
g2
Ntp165
Rp166
(lp167
(lp168
F-0.5197508096110155
aF-0.6285410370946947
aF-0.7280858090594589
aF1.7822513003999247
aF1.053897760754898
aF0.7448160571834872
aF0.4697363221124277
aa(lp169
a(lp170
ag0
(g35
g2
Ntp171
Rp172
(lp173
I1
aI673072816
ababag0
(g28
g2
Ntp174
Rp175
(lp176
(lp177
F-0.5171497259421274
aF-0.6299923055764148
aF-0.7252278855149037
aF1.782857272074335
aF1.0465593876617436
aF0.7400424492478086
aF0.4669837754699524
aa(lp178
a(lp179
ag0
(g35
g2
Ntp180
Rp181
(lp182
I1
aI747255249
ababag0
(g28
g2
Ntp183
Rp184
(lp185
(lp186
F-0.5147786725830499
aF-0.6303272339685828
aF-0.7234266011804207
aF1.7827359486942593
aF1.0416730903736857
aF0.7370632243624449
aF0.4658840576254489
aa(lp187
a(lp188
ag0
(g35
g2
Ntp189
Rp190
(lp191
I1
aI817731490
ababag0
(g28
g2
Ntp192
Rp193
(lp194
(lp195
F-0.5124076192239724
aF-0.6306621623607509
aF-0.7216253168459378
aF1.7826146253141835
aF1.0367867930856276
aF0.7340839994770811
aF0.46478433978094535
aa(lp196
a(lp197
ag0
(g35
g2
Ntp198
Rp199
(lp200
I1
aI867872733
ababag0
(g28
g2
Ntp201
Rp202
(lp203
(lp204
F-0.5100365658648949
aF-0.630997090752919
aF-0.7198240325114549
aF1.7824933019341076
aF1.0319004957975697
aF0.7311047745917174
aF0.46368462193644183
aa(lp205
a(lp206
ag0
(g35
g2
Ntp207
Rp208
(lp209
I1
aI924625849
ababag0
(g28
g2
Ntp210
Rp211
(lp212
(lp213
F-0.5076655125058175
aF-0.6313320191450871
aF-0.7180227481769719
aF1.782371978554032
aF1.0270141985095118
aF0.7281255497063537
aF0.4625849040919383
aa(lp214
a(lp215
ag0
(g35
g2
Ntp216
Rp217
(lp218
I2
aI25724956
ababag0
(g28
g2
Ntp219
Rp220
(lp221
(lp222
F-0.4997810283109116
aF-0.6317017749571099
aF-0.7126382742882011
aF1.7814612244960046
aF1.0121235279020926
aF0.7192520245600633
aF0.45998931812813115
aa(lp223
a(lp224
ag0
(g35
g2
Ntp225
Rp226
(lp227
I2
aI163131990
ababag0
(g28
g2
Ntp228
Rp229
(lp230
(lp231
F-0.4918965441160057
aF-0.6320715307691327
aF-0.7072538003994304
aF1.7805504704379773
aF0.9972328572946736
aF0.710378499413773
aF0.457393732164324
aa(lp232
a(lp233
ag0
(g35
g2
Ntp234
Rp235
(lp236
I2
aI254302464
ababag0
(g28
g2
Ntp237
Rp238
(lp239
(lp240
F-0.4840120599210998
aF-0.6324412865811555
aF-0.7018693265106597
aF1.77963971637995
aF0.9823421866872545
aF0.7015049742674826
aF0.45479814620051684
aa(lp241
a(lp242
ag0
(g35
g2
Ntp243
Rp244
(lp245
I2
aI328203063
ababag0
(g28
g2
Ntp246
Rp247
(lp248
(lp249
F-0.4761275757261939
aF-0.6328110423931783
aF-0.6964848526218889
aF1.7787289623219227
aF0.9674515160798354
aF0.6926314491211923
aF0.45220256023670974
aa(lp250
a(lp251
ag0
(g35
g2
Ntp252
Rp253
(lp254
I2
aI392493846
ababag0
(g28
g2
Ntp255
Rp256
(lp257
(lp258
F-0.4572162298596312
aF-0.6332504530449106
aF-0.6839339996245424
aF1.7762393469079925
aF0.932552098833694
aF0.6719693234530488
aF0.44661523803429537
aa(lp259
a(lp260
ag0
(g35
g2
Ntp261
Rp262
(lp263
I2
aI519723776
ababag0
(g28
g2
Ntp264
Rp265
(lp266
(lp267
F-0.4383048839930684
aF-0.6336898636966428
aF-0.671383146627196
aF1.7737497314940622
aF0.8976526815875527
aF0.6513071977849052
aF0.44102791583188095
aa(lp268
a(lp269
ag0
(g35
g2
Ntp270
Rp271
(lp272
I2
aI636055166
ababag0
(g28
g2
Ntp273
Rp274
(lp275
(lp276
F-0.4193935381265056
aF-0.6341292743483751
aF-0.6588322936298496
aF1.771260116080132
aF0.8627532643414114
aF0.6306450721167617
aF0.4354405936294666
aa(lp277
a(lp278
ag0
(g35
g2
Ntp279
Rp280
(lp281
I2
aI752386558
ababag0
(g28
g2
Ntp282
Rp283
(lp284
(lp285
F-0.40048219225994286
aF-0.6345686850001073
aF-0.6462814406325033
aF1.7687705006662018
aF0.8278538470952701
aF0.6099829464486182
aF0.4298532714270522
aa(lp286
a(lp287
ag0
(g35
g2
Ntp288
Rp289
(lp290
I2
aI868717949
ababag0
(g28
g2
Ntp291
Rp292
(lp293
(lp294
F-0.3760574155575517
aF-0.6350429230716943
aF-0.630147398080869
aF1.7654914545743199
aF0.7829500565297677
aF0.583426520519548
aF0.4227700811053342
aa(lp295
a(lp296
ag0
(g35
g2
Ntp297
Rp298
(lp299
I3
aI18397250
ababag0
(g28
g2
Ntp300
Rp301
(lp302
(lp303
F-0.3516326388551605
aF-0.6355171611432813
aF-0.6140133555292348
aF1.7622124084824382
aF0.7380462659642653
aF0.5568700945904779
aF0.4156868907836162
aa(lp304
a(lp305
ag0
(g35
g2
Ntp306
Rp307
(lp308
I3
aI168076552
ababag0
(g28
g2
Ntp309
Rp310
(lp311
(lp312
F-0.3272078621527693
aF-0.6359913992148682
aF-0.5978793129776006
aF1.7589333623905565
aF0.6931424753987627
aF0.5303136686614077
aF0.4086037004618982
aa(lp313
a(lp314
ag0
(g35
g2
Ntp315
Rp316
(lp317
I3
aI317755854
ababag0
(g28
g2
Ntp318
Rp319
(lp320
(lp321
F-0.30278308545037813
aF-0.6364656372864553
aF-0.5817452704259662
aF1.7556543162986746
aF0.6482386848332603
aF0.5037572427323376
aF0.40152051014018014
aa(lp322
a(lp323
ag0
(g35
g2
Ntp324
Rp325
(lp326
I3
aI467435156
ababag0
(g28
g2
Ntp327
Rp328
(lp329
(lp330
F-0.28026883510412437
aF-0.6320702051425613
aF-0.5708053323695885
aF1.7493364701375824
aF0.6156667832087508
aF0.4859900267152462
aF0.40188518025182707
aa(lp331
a(lp332
ag0
(g35
g2
Ntp333
Rp334
(lp335
I3
aI576008161
ababag0
(g28
g2
Ntp336
Rp337
(lp338
(lp339
F-0.25775458475787055
aF-0.6276747729986671
aF-0.5598653943132109
aF1.7430186239764902
aF0.5830948815842412
aF0.46822281069815486
aF0.40224985036347405
aa(lp340
a(lp341
ag0
(g35
g2
Ntp342
Rp343
(lp344
I3
aI684581167
ababag0
(g28
g2
Ntp345
Rp346
(lp347
(lp348
F-0.23524033441161676
aF-0.623279340854773
aF-0.5489254562568333
aF1.7367007778153978
aF0.5505229799597317
aF0.45045559468106344
aF0.40261452047512103
aa(lp349
a(lp350
ag0
(g35
g2
Ntp351
Rp352
(lp353
I3
aI793154171
ababag0
(g28
g2
Ntp354
Rp355
(lp356
(lp357
F-0.21272608406536297
aF-0.6188839087108788
aF-0.5379855182004556
aF1.7303829316543056
aF0.5179510783352221
aF0.4326883786639721
aF0.402979190586768
aa(lp358
a(lp359
ag0
(g35
g2
Ntp360
Rp361
(lp362
I3
aI901727178
ababag0
(g28
g2
Ntp363
Rp364
(lp365
(lp366
F-0.19021183371910919
aF-0.6144884765669847
aF-0.5270455801440779
aF1.7240650854932134
aF0.48537917671071257
aF0.4149211626468807
aF0.403343860698415
aa(lp367
a(lp368
ag0
(g35
g2
Ntp369
Rp370
(lp371
I4
aI26529048
ababag0
(g28
g2
Ntp372
Rp373
(lp374
(lp375
F-0.15396399344900408
aF-0.6156714077355586
aF-0.5062428245465816
aF1.7071967781455297
aF0.44540563408441924
aF0.3955072438156803
aF0.40500358925411045
aa(lp376
a(lp377
ag0
(g35
g2
Ntp378
Rp379
(lp380
I4
aI251881745
ababag0
(g28
g2
Ntp381
Rp382
(lp383
(lp384
F-0.14170331120650176
aF-0.6123115505106601
aF-0.49776041109986496
aF1.7057496346883436
aF0.41682205117341775
aF0.38281487360719396
aF0.40723594169673494
aa(lp385
a(lp386
ag0
(g35
g2
Ntp387
Rp388
(lp389
I4
aI407160356
ababag0
(g28
g2
Ntp390
Rp391
(lp392
(lp393
F-0.12266908268034783
aF-0.6013021801353022
aF-0.4942257659749449
aF1.7051115470099365
aF0.38766347183718386
aF0.3616195145956066
aF0.40443787103335593
aa(lp394
a(lp395
ag0
(g35
g2
Ntp396
Rp397
(lp398
I4
aI670555968
ababag0
(g28
g2
Ntp399
Rp400
(lp401
(lp402
F-0.12144209095185468
aF-0.6008582157291253
aF-0.49207217808674886
aF1.7050036968982656
aF0.3874347531582702
aF0.35895867057731073
aF0.4035695252359437
aa(lp403
a(lp404
ag0
(g35
g2
Ntp405
Rp406
(lp407
I4
aI852764732
ababag0
(g28
g2
Ntp408
Rp409
(lp410
(lp411
F-0.12021509922336154
aF-0.6004142513229483
aF-0.4899185901985528
aF1.7048958467865947
aF0.38720603447935653
aF0.3562978265590149
aF0.4027011794385314
aa(lp412
a(lp413
ag0
(g35
g2
Ntp414
Rp415
(lp416
I4
aI895874832
ababag0
(g28
g2
Ntp417
Rp418
(lp419
(lp420
F-0.1189881074948684
aF-0.5999702869167713
aF-0.48776500231035674
aF1.7047879966749238
aF0.38697731580044287
aF0.35363698254071896
aF0.4018328336411191
aa(lp421
a(lp422
ag0
(g35
g2
Ntp423
Rp424
(lp425
I4
aI929189914
ababag0
(g28
g2
Ntp426
Rp427
(lp428
(lp429
F-0.11776111576637527
aF-0.5995263225105945
aF-0.4856114144221607
aF1.7046801465632528
aF0.3867485971215292
aF0.3509761385224231
aF0.40096448784370686
aa(lp430
a(lp431
ag0
(g35
g2
Ntp432
Rp433
(lp434
I4
aI957601723
ababag0
(g28
g2
Ntp435
Rp436
(lp437
(lp438
F-0.11653412403788213
aF-0.5990823581044176
aF-0.4834578265339647
aF1.704572296451582
aF0.38651987844261554
aF0.34831529450412724
aF0.40009614204629457
aa(lp439
a(lp440
ag0
(g35
g2
Ntp441
Rp442
(lp443
I4
aI989616862
ababag0
(g28
g2
Ntp444
Rp445
(lp446
(lp447
F-0.115307132309389
aF-0.5986383936982406
aF-0.48130423864576866
aF1.704464446339911
aF0.3862911597637019
aF0.3456544504858313
aF0.39922779624888227
aa(lp448
a(lp449
ag0
(g35
g2
Ntp450
Rp451
(lp452
I5
aI29776570
ababag0
(g28
g2
Ntp453
Rp454
(lp455
(lp456
F-0.11408014058089586
aF-0.5981944292920636
aF-0.4791506507575726
aF1.70435659622824
aF0.38606244108478827
aF0.34299360646753546
aF0.39835945045147003
aa(lp457
a(lp458
ag0
(g35
g2
Ntp459
Rp460
(lp461
I5
aI73319964
ababag0
(g28
g2
Ntp462
Rp463
(lp464
(lp465
F-0.1128531488524027
aF-0.5977504648858867
aF-0.4769970628693766
aF1.7042487461165692
aF0.3858337224058746
aF0.3403327624492396
aF0.39749110465405774
aa(lp466
a(lp467
ag0
(g35
g2
Ntp468
Rp469
(lp470
I5
aI249756994
ababag0
(g28
g2
Ntp471
Rp472
(lp473
(lp474
F-0.10267517409935495
aF-0.593725759883614
aF-0.4570837877458045
aF1.7035948251769977
aF0.3859772348960038
aF0.3161178294696593
aF0.38912551574551457
aa(lp475
a(lp476
ag0
(g35
g2
Ntp477
Rp478
(lp479
I5
aI466858356
ababag0
(g28
g2
Ntp480
Rp481
(lp482
(lp483
F-0.09249719934630718
aF-0.5897010548813413
aF-0.43717051262223244
aF1.7029409042374264
aF0.386120747386133
aF0.291902896490079
aF0.38075992683697135
aa(lp484
a(lp485
ag0
(g35
g2
Ntp486
Rp487
(lp488
I5
aI589552029
ababag0
(g28
g2
Ntp489
Rp490
(lp491
(lp492
F-0.08231922459325941
aF-0.5856763498790687
aF-0.4172572374986604
aF1.702286983297855
aF0.3862642598762622
aF0.2676879635104987
aF0.37239433792842813
aa(lp493
a(lp494
ag0
(g35
g2
Ntp495
Rp496
(lp497
I5
aI687066287
ababag0
(g28
g2
Ntp498
Rp499
(lp500
(lp501
F-0.07214124984021164
aF-0.581651644876796
aF-0.3973439623750883
aF1.7016330623582836
aF0.38640777236639134
aF0.24347303053091843
aF0.3640287490198849
aa(lp502
a(lp503
ag0
(g35
g2
Ntp504
Rp505
(lp506
I5
aI769405131
ababag0
(g28
g2
Ntp507
Rp508
(lp509
(lp510
F-0.05251332793754072
aF-0.5736895362816445
aF-0.35773995259583236
aF1.7005131718020174
aF0.38788146874459045
aF0.19551830626652708
aF0.3472140699742263
aa(lp511
a(lp512
ag0
(g35
g2
Ntp513
Rp514
(lp515
I5
aI929254212
ababag0
(g28
g2
Ntp516
Rp517
(lp518
(lp519
F-0.032885406034869794
aF-0.565727427686493
aF-0.31813594281657637
aF1.699393281245751
aF0.38935516512278956
aF0.14756358200213573
aF0.3303993909285677
aa(lp520
a(lp521
ag0
(g35
g2
Ntp522
Rp523
(lp524
I6
aI89103292
ababag0
(g28
g2
Ntp525
Rp526
(lp527
(lp528
F-0.01325748413219887
aF-0.5577653190913414
aF-0.27853193303732043
aF1.6982733906894847
aF0.39082886150098867
aF0.09960885773774439
aF0.31358471188290904
aa(lp529
a(lp530
ag0
(g35
g2
Ntp531
Rp532
(lp533
I6
aI248952372
ababag0
(g28
g2
Ntp534
Rp535
(lp536
(lp537
F0.006370437770472054
aF-0.54980321049619
aF-0.23892792325806447
aF1.6971535001332185
aF0.3923025578791878
aF0.051654133473353056
aF0.29677003283725045
aa(lp538
a(lp539
ag0
(g35
g2
Ntp540
Rp541
(lp542
I6
aI408801453
ababag0
(g28
g2
Ntp543
Rp544
(lp545
(lp546
F0.0448982539723893
aF-0.5339662947152808
aF-0.1599424441674408
aF1.6951016703435626
aF0.3964366220335267
aF-0.04378017336066039
aF0.2630571735173611
aa(lp547
a(lp548
ag0
(g35
g2
Ntp549
Rp550
(lp551
I6
aI726915810
ababag0
(g28
g2
Ntp552
Rp553
(lp554
(lp555
F0.08342607017430655
aF-0.5181293789343715
aF-0.08095696507681713
aF1.6930498405539067
aF0.4005706861878657
aF-0.13921448019467383
aF0.2293443141974717
aa(lp556
a(lp557
ag0
(g35
g2
Ntp558
Rp559
(lp560
I7
aI45030167
ababag0
(g28
g2
Ntp561
Rp562
(lp563
(lp564
F0.12195388637622379
aF-0.5022924631534622
aF-0.0019714859861934553
aF1.6909980107642508
aF0.40470475034220466
aF-0.2346487870286873
aF0.19563145487758232
aa(lp565
a(lp566
ag0
(g35
g2
Ntp567
Rp568
(lp569
I7
aI363144522
ababag0
(g28
g2
Ntp570
Rp571
(lp572
(lp573
F0.16048170257814104
aF-0.48645554737255303
aF0.07701399310443022
aF1.6889461809745951
aF0.4088388144965436
aF-0.33008309386270074
aF0.16191859555769297
aa(lp574
a(lp575
ag0
(g35
g2
Ntp576
Rp577
(lp578
I7
aI681258879
ababag0
(g28
g2
Ntp579
Rp580
(lp581
(lp582
F0.20845946592968145
aF-0.46668122799876494
aF0.17569020685073777
aF1.6864283815682444
aF0.41430306253895244
aF-0.44925719198152525
aF0.1197566461006882
aa(lp583
a(lp584
ag0
(g35
g2
Ntp585
Rp586
(lp587
I8
aI78505872
ababag0
(g28
g2
Ntp588
Rp589
(lp590
(lp591
F0.25643722928122187
aF-0.44690690862497684
aF0.2743664205970453
aF1.6839105821618938
aF0.4197673105813613
aF-0.5684312901003498
aF0.07759469664368343
aa(lp592
a(lp593
ag0
(g35
g2
Ntp594
Rp595
(lp596
I8
aI475752866
ababag0
(g28
g2
Ntp597
Rp598
(lp599
(lp600
F0.2933875522839958
aF-0.4316590043212948
aF0.35047392284132095
aF1.6819845839527123
aF0.4240866786676458
aF-0.6603304557905532
aF0.04506018865271972
aa(lp601
a(lp602
ag0
(g35
g2
Ntp603
Rp604
(lp605
I8
aI782083418
ababag0
(g28
g2
Ntp606
Rp607
(lp608
(lp609
F0.33033787528676983
aF-0.4164111000176128
aF0.4265814250855966
aF1.6800585857435306
aF0.42840604675393035
aF-0.7522296214807567
aF0.012525680661756008
aa(lp610
a(lp611
ag0
(g35
g2
Ntp612
Rp613
(lp614
I9
aI88413970
ababag0
(g28
g2
Ntp615
Rp616
(lp617
(lp618
F0.345233317592011
aF-0.41021602585414285
aF0.45755150432580854
aF1.679316189928687
aF0.43043565492796615
aF-0.7895789223137178
aF-0.0007539443971255931
aa(lp619
a(lp620
ag0
(g35
g2
Ntp621
Rp622
(lp623
I9
aI212911639
ababag0
(g28
g2
Ntp624
Rp625
(lp626
(lp627
F0.3601287598972521
aF-0.40402095169067287
aF0.4885215835660205
aF1.6785737941138437
aF0.43246526310200195
aF-0.826928223146679
aF-0.014033569456007195
aa(lp628
a(lp629
ag0
(g35
g2
Ntp630
Rp631
(lp632
I9
aI360354781
ababag0
(g28
g2
Ntp633
Rp634
(lp635
(lp636
F0.3664779259656151
aF-0.40458976046206857
aF0.518009495156998
aF1.6761563552144603
aF0.43588676523757675
aF-0.8627303256758737
aF-0.027060965347525025
aa(lp637
a(lp638
ag0
(g35
g2
Ntp639
Rp640
(lp641
I9
aI575352900
ababag0
(g28
g2
Ntp642
Rp643
(lp644
(lp645
F0.3738307873311156
aF-0.4018053166850005
aF0.5311200788987843
aF1.673974053021936
aF0.4383674411188439
aF-0.8753832615540607
aF-0.031058667932928705
aa(lp646
a(lp647
ag0
(g35
g2
Ntp648
Rp649
(lp650
I9
aI753733920
ababag0
(g28
g2
Ntp651
Rp652
(lp653
(lp654
F0.37569372963451714
aF-0.3965050830946295
aF0.5362147688136936
aF1.6724845059358322
aF0.4397643343495984
aF-0.879720407371856
aF-0.030256429220174328
aa(lp655
a(lp656
ag0
(g35
g2
Ntp657
Rp658
(lp659
I9
aI873364414
ababag0
(g28
g2
Ntp660
Rp661
(lp662
(lp663
F0.3801051810619181
aF-0.396981244643946
aF0.5359657663226396
aF1.6764690304657086
aF0.43938571919536457
aF-0.8828296110571288
aF-0.03024842856447785
aa(lp664
a(lp665
ag0
(g35
g2
Ntp666
Rp667
(lp668
I9
aI969703124
ababag0
(g28
g2
Ntp669
Rp670
(lp671
(lp672
F0.38097732245870813
aF-0.3948718060618478
aF0.5380129993669228
aF1.677274188697021
aF0.43855363473460623
aF-0.8860375454390587
aF-0.03256078998739768
aa(lp673
a(lp674
ag0
(g35
g2
Ntp675
Rp676
(lp677
I10
aI32817177
ababag0
(g28
g2
Ntp678
Rp679
(lp680
(lp681
F0.3833367716361006
aF-0.39400899713048937
aF0.5389297899951009
aF1.6776702264077965
aF0.4377736324094708
aF-0.88737443357272
aF-0.03594667101305048
aa(lp682
a(lp683
ag0
(g35
g2
Ntp684
Rp685
(lp686
I10
aI151555877
ababag0
(g28
g2
Ntp687
Rp688
(lp689
(lp690
F0.38529637218286655
aF-0.3909530962888833
aF0.5484229925314819
aF1.676920195579221
aF0.4435484113444712
aF-0.8964192375914755
aF-0.04065703054506299
aa(lp691
a(lp692
ag0
(g35
g2
Ntp693
Rp694
(lp695
I10
aI286715886
ababag0
(g28
g2
Ntp696
Rp697
(lp698
(lp699
F0.3872559727296325
aF-0.3878971954472773
aF0.5579161950678628
aF1.6761701647506455
aF0.44932319027947165
aF-0.9054640416102309
aF-0.0453673900770755
aa(lp700
a(lp701
ag0
(g35
g2
Ntp702
Rp703
(lp704
I10
aI364792109
ababag0
(g28
g2
Ntp705
Rp706
(lp707
(lp708
F0.38921557327639855
aF-0.3848412946056713
aF0.5674093976042438
aF1.6754201339220698
aF0.4550979692144721
aF-0.9145088456289863
aF-0.05007774960908801
aa(lp709
a(lp710
ag0
(g35
g2
Ntp711
Rp712
(lp713
I10
aI426174800
ababag0
(g28
g2
Ntp714
Rp715
(lp716
(lp717
F0.3911751738231645
aF-0.3817853937640653
aF0.5769026001406248
aF1.6746701030934943
aF0.4608727481494725
aF-0.9235536496477417
aF-0.05478810914110052
aa(lp718
a(lp719
ag0
(g35
g2
Ntp720
Rp721
(lp722
I10
aI479046748
ababag0
(g28
g2
Ntp723
Rp724
(lp725
(lp726
F0.3931347743699305
aF-0.3787294929224593
aF0.5863958026770058
aF1.6739200722649188
aF0.4666475270844729
aF-0.9325984536664971
aF-0.059498468673113036
aa(lp727
a(lp728
ag0
(g35
g2
Ntp729
Rp730
(lp731
I10
aI525967916
ababag0
(g28
g2
Ntp732
Rp733
(lp734
(lp735
F0.3950943749166965
aF-0.37567359208085327
aF0.5958890052133867
aF1.673170041436343
aF0.4724223060194733
aF-0.9416432576852526
aF-0.06420882820512555
aa(lp736
a(lp737
ag0
(g35
g2
Ntp738
Rp739
(lp740
I10
aI568869810
ababag0
(g28
g2
Ntp741
Rp742
(lp743
(lp744
F0.3970539754634625
aF-0.37261769123924726
aF0.6053822077497677
aF1.6724200106077676
aF0.4781970849544738
aF-0.9506880617040081
aF-0.06891918773713807
aa(lp745
a(lp746
ag0
(g35
g2
Ntp747
Rp748
(lp749
I10
aI608096719
ababag0
(g28
g2
Ntp750
Rp751
(lp752
(lp753
F0.39901357601022847
aF-0.36956179039764125
aF0.6148754102861487
aF1.671669979779192
aF0.48397186388947416
aF-0.9597328657227635
aF-0.07362954726915057
aa(lp754
a(lp755
ag0
(g35
g2
Ntp756
Rp757
(lp758
I10
aI645050242
ababag0
(g28
g2
Ntp759
Rp760
(lp761
(lp762
F0.40637304728852863
aF-0.35715329034351595
aF0.6515134449678903
aF1.668228939151766
aF0.5067047246227747
aF-0.9938502021382074
aF-0.09181502222365107
aa(lp763
a(lp764
ag0
(g35
g2
Ntp765
Rp766
(lp767
I10
aI780746667
ababag0
(g28
g2
Ntp768
Rp769
(lp770
(lp771
F0.4137325185668288
aF-0.3447447902893906
aF0.6881514796496321
aF1.6647878985243398
aF0.5294375853560753
aF-1.0279675385536513
aF-0.11000049717815158
aa(lp772
a(lp773
ag0
(g35
g2
Ntp774
Rp775
(lp776
I10
aI916443091
ababag0
(g28
g2
Ntp777
Rp778
(lp779
(lp780
F0.42109198984512897
aF-0.33233629023526523
aF0.7247895143313738
aF1.6613468578969137
aF0.5521704460893759
aF-1.062084874969095
aF-0.1281859721326521
aa(lp781
a(lp782
ag0
(g35
g2
Ntp783
Rp784
(lp785
I11
aI52139517
ababag0
(g28
g2
Ntp786
Rp787
(lp788
(lp789
F0.4284514611234291
aF-0.3199277901811399
aF0.7614275490131155
aF1.6579058172694876
aF0.5749033068226764
aF-1.0962022113845389
aF-0.14637144708715258
aa(lp790
a(lp791
ag0
(g35
g2
Ntp792
Rp793
(lp794
I11
aI187835940
ababag0
(g28
g2
Ntp795
Rp796
(lp797
(lp798
F0.4358109324017292
aF-0.3075192901270146
aF0.7980655836948571
aF1.6544647766420615
aF0.5976361675559769
aF-1.1303195477999828
aF-0.16455692204165306
aa(lp799
a(lp800
ag0
(g35
g2
Ntp801
Rp802
(lp803
I11
aI323532366
ababag0
(g28
g2
Ntp804
Rp805
(lp806
(lp807
F0.44317040368002936
aF-0.2951107900728893
aF0.8347036183765989
aF1.6510237360146354
aF0.6203690282892775
aF-1.1644368842154265
aF-0.18274239699615358
aa(lp808
a(lp809
ag0
(g35
g2
Ntp810
Rp811
(lp812
I11
aI459228790
ababag0
(g28
g2
Ntp813
Rp814
(lp815
(lp816
F0.4505298749583295
aF-0.282702290018764
aF0.8713416530583407
aF1.6475826953872095
aF0.6431018890225781
aF-1.1985542206308704
aF-0.2009278719506541
aa(lp817
a(lp818
ag0
(g35
g2
Ntp819
Rp820
(lp821
I11
aI594925216
ababag0
(g28
g2
Ntp822
Rp823
(lp824
(lp825
F0.4578893462366297
aF-0.27029378996463865
aF0.9079796877400823
aF1.6441416547597834
aF0.6658347497558786
aF-1.2326715570463143
aF-0.2191133469051546
aa(lp826
a(lp827
ag0
(g35
g2
Ntp828
Rp829
(lp830
I11
aI736131458
ababag0
(g28
g2
Ntp831
Rp832
(lp833
(lp834
F0.46531064753972234
aF-0.2122483706534242
aF0.9930784213397695
aF1.6101675806871998
aF0.7398302733879865
aF-1.2743416393632498
aF-0.2616534908538428
aa(lp835
a(lp836
ag0
(g35
g2
Ntp837
Rp838
(lp839
I12
aI61311954
ababag0
(g28
g2
Ntp840
Rp841
(lp842
(lp843
F0.472731948842815
aF-0.15420295134220974
aF1.0781771549394568
aF1.576193506614616
aF0.8138257970200944
aF-1.3160117216801854
aF-0.30419363480253103
aa(lp844
a(lp845
ag0
(g35
g2
Ntp846
Rp847
(lp848
I12
aI376492449
ababag0
(g28
g2
Ntp849
Rp850
(lp851
(lp852
F0.48015325014590765
aF-0.0961575320309953
aF1.163275888539144
aF1.5422194325420322
aF0.8878213206522022
aF-1.357681803997121
aF-0.34673377875121925
aa(lp853
a(lp854
ag0
(g35
g2
Ntp855
Rp856
(lp857
I12
aI691672944
ababag0
(g28
g2
Ntp858
Rp859
(lp860
(lp861
F0.4875745514490003
aF-0.03811211271978085
aF1.2483746221388312
aF1.5082453584694484
aF0.96181684428431
aF-1.3993518863140566
aF-0.3892739226999074
aa(lp862
a(lp863
ag0
(g35
g2
Ntp864
Rp865
(lp866
I13
aI6853439
ababag0
(g28
g2
Ntp867
Rp868
(lp869
(lp870
F0.49312807546992976
aF0.0066019132871361075
aF1.3134067484473255
aF1.4819660572760172
aF1.0186220752321287
aF-1.4307383715817965
aF-0.42178660327205686
aa(lp871
a(lp872
ag0
(g35
g2
Ntp873
Rp874
(lp875
I13
aI247713166
ababag0
(g28
g2
Ntp876
Rp877
(lp878
(lp879
F0.49868159949085916
aF0.051315939294053065
aF1.3784388747558198
aF1.455686756082586
aF1.075427306179947
aF-1.4621248568495364
aF-0.45429928384420626
aa(lp880
a(lp881
ag0
(g35
g2
Ntp882
Rp883
(lp884
I13
aI488572893
ababag0
(g28
g2
Ntp885
Rp886
(lp887
(lp888
F0.5042351235117886
aF0.09602996530097002
aF1.4434710010643141
aF1.4294074548891547
aF1.1322325371277657
aF-1.4935113421172765
aF-0.48681196441635566
aa(lp889
a(lp890
ag0
(g35
g2
Ntp891
Rp892
(lp893
I13
aI729432620
ababag0
(g28
g2
Ntp894
Rp895
(lp896
(lp897
F0.509788647532718
aF0.14074399130788698
aF1.5085031273728087
aF1.4031281536957232
aF1.1890377680755844
aF-1.5248978273850164
aF-0.5193246449885051
aa(lp898
a(lp899
ag0
(g35
g2
Ntp900
Rp901
(lp902
I13
aI970292347
ababag0
(g28
g2
Ntp903
Rp904
(lp905
(lp906
F0.511606616989321
aF0.15879523070620893
aF1.5334020390989171
aF1.3922383982605968
aF1.2114624136548242
aF-1.535717118554365
aF-0.5317823988075769
aa(lp907
a(lp908
ag0
(g35
g2
Ntp909
Rp910
(lp911
I14
aI62510538
ababag0
(g28
g2
Ntp912
Rp913
(lp914
(lp915
F0.513424586445924
aF0.17684647010453092
aF1.5583009508250254
aF1.3813486428254707
aF1.2338870592340643
aF-1.5465364097237138
aF-0.5442401526266487
aa(lp916
a(lp917
ag0
(g35
g2
Ntp918
Rp919
(lp920
I14
aI161380921
ababag0
(g28
g2
Ntp921
Rp922
(lp923
(lp924
F0.5152425559025271
aF0.19489770950285287
aF1.5831998625511339
aF1.3704588873903443
aF1.2563117048133043
aF-1.5573557008930623
aF-0.5566979064457205
aa(lp925
a(lp926
ag0
(g35
g2
Ntp927
Rp928
(lp929
I14
aI286739865
ababag0
(g28
g2
Ntp930
Rp931
(lp932
(lp933
F0.51706052535913
aF0.21294894890117483
aF1.6080987742772423
aF1.359569131955218
aF1.2787363503925442
aF-1.5681749920624108
aF-0.5691556602647924
aa(lp934
a(lp935
ag0
(g35
g2
Ntp936
Rp937
(lp938
I14
aI495085470
ababag0
(g28
g2
Ntp939
Rp940
(lp941
(lp942
F0.5170107175335699
aF0.21766879499519928
aF1.6129310787121578
aF1.356374149399244
aF1.283970703287495
aF-1.5687106861825637
aF-0.5715859507073253
aa(lp943
a(lp944
ag0
(g35
g2
Ntp945
Rp946
(lp947
I14
aI619693367
ababag0
(g28
g2
Ntp948
Rp949
(lp950
(lp951
F0.5169609097080097
aF0.22238864108922374
aF1.6177633831470732
aF1.3531791668432702
aF1.2892050561824457
aF-1.5692463803027166
aF-0.5740162411498584
aa(lp952
a(lp953
ag0
(g35
g2
Ntp954
Rp955
(lp956
I14
aI680064040
ababag0
(g28
g2
Ntp957
Rp958
(lp959
(lp960
F0.5169111018824495
aF0.22710848718324822
aF1.6225956875819887
aF1.3499841842872964
aF1.2944394090773965
aF-1.5697820744228694
aF-0.5764465315923915
aa(lp961
a(lp962
ag0
(g35
g2
Ntp963
Rp964
(lp965
I14
aI740691288
ababag0
(g28
g2
Ntp966
Rp967
(lp968
(lp969
F0.5168612940568893
aF0.23182833327727267
aF1.6274279920169041
aF1.3467892017313225
aF1.299673761972347
aF-1.5703177685430223
aF-0.5788768220349245
aa(lp970
a(lp971
ag0
(g35
g2
Ntp972
Rp973
(lp974
I14
aI889344389
ababaabag0
(cmoveit_msgs.msg._MultiDOFJointTrajectory
MultiDOFJointTrajectory
p975
g2
Ntp976
Rp977
(lp978
g0
(g10
g2
Ntp979
Rp980
(lp981
I0
ag0
(g14
g2
Ntp982
Rp983
(lp984
I0
aI0
abaS''
p985
abag19
a(lp986
abab.