ccopy_reg
_reconstructor
p0
(cmoveit_msgs.msg._RobotTrajectory
RobotTrajectory
p1
c__builtin__
object
p2
Ntp3
Rp4
(lp5
g0
(ctrajectory_msgs.msg._JointTrajectory
JointTrajectory
p6
g2
Ntp7
Rp8
(lp9
g0
(cstd_msgs.msg._Header
Header
p10
g2
Ntp11
Rp12
(lp13
I0
ag0
(cgenpy.rostime
Time
p14
g2
Ntp15
Rp16
(lp17
I0
aI0
abaS'/base'
p18
aba(lp19
S'left_s0'
p20
aS'left_s1'
p21
aS'left_e0'
p22
aS'left_e1'
p23
aS'left_w0'
p24
aS'left_w1'
p25
aS'left_w2'
p26
aa(lp27
g0
(ctrajectory_msgs.msg._JointTrajectoryPoint
JointTrajectoryPoint
p28
g2
Ntp29
Rp30
(lp31
(lp32
F0.3777427685852051
aF0.38502917731933595
aF1.4411749485717775
aF1.848063352093506
aF1.1244079162353517
aF-1.5454856420288088
aF-0.20210196857299806
aa(lp33
a(lp34
ag0
(cgenpy.rostime
Duration
p35
g2
Ntp36
Rp37
(lp38
I0
aI200000000
ababag0
(g28
g2
Ntp39
Rp40
(lp41
(lp42
F0.38041635836584414
aF0.3789327266830383
aF1.4524271929452335
aF1.8525761893342598
aF1.1334792551796307
aF-1.555993299765217
aF-0.1993856200310914
aa(lp43
a(lp44
ag0
(g35
g2
Ntp45
Rp46
(lp47
I0
aI400000000
ababag0
(g28
g2
Ntp48
Rp49
(lp50
(lp51
F0.3831757269810344
aF0.37280861602425175
aF1.4637542256588945
aF1.8568061473761512
aF1.1426433564440184
aF-1.5664372570137652
aF-0.19669905269215196
aa(lp52
a(lp53
ag0
(g35
g2
Ntp54
Rp55
(lp56
I0
aI600000000
ababag0
(g28
g2
Ntp57
Rp58
(lp59
(lp60
F0.38654117377973257
aF0.3590581757597183
aF1.470749783881949
aF1.8610099922274443
aF1.1578818330321694
aF-1.57079632679
aF-0.1913869921551815
aa(lp61
a(lp62
ag0
(g35
g2
Ntp63
Rp64
(lp65
I0
aI800000000
ababag0
(g28
g2
Ntp66
Rp67
(lp68
(lp69
F0.39020273847304143
aF0.33996674277606903
aF1.474727991243758
aF1.8650792070265245
aF1.1773653484443534
aF-1.57079632679
aF-0.1844905059831623
aa(lp70
a(lp71
ag0
(g35
g2
Ntp72
Rp73
(lp74
I1
aI0
ababag0
(g28
g2
Ntp75
Rp76
(lp77
(lp78
F0.39374072331177246
aF0.32107296319382206
aF1.478888897765808
aF1.868817628452063
aF1.196721939008481
aF-1.57079632679
aF-0.17800657404742054
aa(lp79
a(lp80
ag0
(g35
g2
Ntp81
Rp82
(lp83
I1
aI199999999
ababag0
(g28
g2
Ntp84
Rp85
(lp86
(lp87
F0.3971573958879071
aF0.30237026180670723
aF1.4832208982566804
aF1.8722252720122758
aF1.2159557331996098
aF-1.57079632679
aF-0.17192852228433775
aa(lp88
a(lp89
ag0
(g35
g2
Ntp90
Rp91
(lp92
I1
aI399999999
ababag0
(g28
g2
Ntp93
Rp94
(lp95
(lp96
F0.40045593967392873
aF0.28383696875681463
aF1.4877037709234548
aF1.875302662279821
aF1.2350823170340544
aF-1.57079632679
aF-0.16624541169017756
aa(lp97
a(lp98
ag0
(g35
g2
Ntp99
Rp100
(lp101
I1
aI599999999
ababag0
(g28
g2
Ntp102
Rp103
(lp104
(lp105
F0.4036385604613089
aF0.26546773350134095
aF1.4923268194985726
aF1.8780498220990933
aF1.2541042527561423
aF-1.57079632679
aF-0.160951688713352
aa(lp106
a(lp107
ag0
(g35
g2
Ntp108
Rp109
(lp110
I1
aI799999999
ababag0
(g28
g2
Ntp111
Rp112
(lp113
(lp114
F0.40670824335060873
aF0.24724189715049644
aF1.4970705646726343
aF1.880467269135454
aF1.2730357219971484
aF-1.57079632679
aF-0.1560379117365538
aa(lp115
a(lp116
ag0
(g35
g2
Ntp117
Rp118
(lp119
I1
aI999999999
ababag0
(g28
g2
Ntp120
Rp121
(lp122
(lp123
F0.4096672678641143
aF0.22915159563104393
aF1.5019229745301683
aF1.8825551519214416
aF1.2918807318473593
aF-1.57079632679
aF-0.15149863941440267
aa(lp124
a(lp125
ag0
(g35
g2
Ntp126
Rp127
(lp128
I2
aI199999999
ababag0
(g28
g2
Ntp129
Rp130
(lp131
(lp132
F0.41251793778702306
aF0.21118901890431163
aF1.5068720871409877
aF1.8843136571882835
aF1.3106430584772033
aF-1.57079632679
aF-0.14732861093420038
aa(lp133
a(lp134
ag0
(g35
g2
Ntp135
Rp136
(lp137
I2
aI399999998
ababag0
(g28
g2
Ntp138
Rp139
(lp140
(lp141
F0.4152629266600433
aF0.1933350672355739
aF1.5118994314119887
aF1.8857433127223653
aF1.3293349954202298
aF-1.57079632679
aF-0.14352042246208763
aa(lp142
a(lp143
ag0
(g35
g2
Ntp144
Rp145
(lp146
I2
aI600000000
ababaabag0
(cmoveit_msgs.msg._MultiDOFJointTrajectory
MultiDOFJointTrajectory
p147
g2
Ntp148
Rp149
(lp150
g0
(g10
g2
Ntp151
Rp152
(lp153
I0
ag0
(g14
g2
Ntp154
Rp155
(lp156
I0
aI0
abaS''
p157
abag19
a(lp158
abab.