ccopy_reg
_reconstructor
p0
(cmoveit_msgs.msg._RobotTrajectory
RobotTrajectory
p1
c__builtin__
object
p2
Ntp3
Rp4
(lp5
g0
(ctrajectory_msgs.msg._JointTrajectory
JointTrajectory
p6
g2
Ntp7
Rp8
(lp9
g0
(cstd_msgs.msg._Header
Header
p10
g2
Ntp11
Rp12
(lp13
I0
ag0
(cgenpy.rostime
Time
p14
g2
Ntp15
Rp16
(lp17
I0
aI0
abaS'/base'
p18
aba(lp19
S'right_s0'
p20
aS'right_s1'
p21
aS'right_e0'
p22
aS'right_e1'
p23
aS'right_w0'
p24
aS'right_w1'
p25
aS'right_w2'
p26
aa(lp27
g0
(ctrajectory_msgs.msg._JointTrajectoryPoint
JointTrajectoryPoint
p28
g2
Ntp29
Rp30
(lp31
(lp32
F0.875903028881836
aF-1.0028399389343263
aF-0.4402524856201172
aF0.6266311511352539
aF0.1975000262145996
aF1.9815196804870607
aF-2.4233061468933106
aa(lp33
a(lp34
ag0
(cgenpy.rostime
Duration
p35
g2
Ntp36
Rp37
(lp38
I0
aI0
ababag0
(g28
g2
Ntp39
Rp40
(lp41
(lp42
F0.8543741173733881
aF-0.9963715562342139
aF-0.4465782155239689
aF0.6460883429920504
aF0.20649626139335658
aF1.9592442236093408
aF-2.306426933352801
aa(lp43
a(lp44
ag0
(g35
g2
Ntp45
Rp46
(lp47
I0
aI483758427
ababag0
(g28
g2
Ntp48
Rp49
(lp50
(lp51
F0.83284520586494
aF-0.9899031735341016
aF-0.45290394542782064
aF0.665545534848847
aF0.21549249657211356
aF1.936968766731621
aF-2.1895477198122912
aa(lp52
a(lp53
ag0
(g35
g2
Ntp54
Rp55
(lp56
I0
aI760599568
ababag0
(g28
g2
Ntp57
Rp58
(lp59
(lp60
F0.8113162943564921
aF-0.9834347908339892
aF-0.45922967533167236
aF0.6850027267056435
aF0.22448873175087056
aF1.9146933098539012
aF-2.072668506271781
aa(lp61
a(lp62
ag0
(g35
g2
Ntp63
Rp64
(lp65
I0
aI994357995
ababag0
(g28
g2
Ntp66
Rp67
(lp68
(lp69
F0.7897873828480442
aF-0.9769664081338768
aF-0.4655554052355241
aF0.7044599185624402
aF0.23348496692962753
aF1.8924178529761813
aF-1.9557892927312714
aa(lp70
a(lp71
ag0
(g35
g2
Ntp72
Rp73
(lp74
I1
aI228116422
ababag0
(g28
g2
Ntp75
Rp76
(lp77
(lp78
F0.7682584713395962
aF-0.9704980254337644
aF-0.4718811351393758
aF0.7239171104192367
aF0.2424812021083845
aF1.8701423960984616
aF-1.8389100791907618
aa(lp79
a(lp80
ag0
(g35
g2
Ntp81
Rp82
(lp83
I1
aI461874849
ababag0
(g28
g2
Ntp84
Rp85
(lp86
(lp87
F0.7467295598311483
aF-0.9640296427336521
aF-0.4782068650432275
aF0.7433743022760333
aF0.2514774372871415
aF1.8478669392207416
aF-1.7220308656502519
aa(lp88
a(lp89
ag0
(g35
g2
Ntp90
Rp91
(lp92
I1
aI695633276
ababag0
(g28
g2
Ntp93
Rp94
(lp95
(lp96
F0.7252006483227003
aF-0.9575612600335397
aF-0.48453259494707923
aF0.7628314941328298
aF0.2604736724658985
aF1.8255914823430217
aF-1.6051516521097422
aa(lp97
a(lp98
ag0
(g35
g2
Ntp99
Rp100
(lp101
I1
aI929391703
ababag0
(g28
g2
Ntp102
Rp103
(lp104
(lp105
F0.7036717368142523
aF-0.9510928773334273
aF-0.49085832485093095
aF0.7822886859896263
aF0.26946990764465545
aF1.803316025465302
aF-1.4882724385692323
aa(lp106
a(lp107
ag0
(g35
g2
Ntp108
Rp109
(lp110
I2
aI163150130
ababag0
(g28
g2
Ntp111
Rp112
(lp113
(lp114
F0.6821428253058044
aF-0.9446244946333149
aF-0.49718405475478267
aF0.8017458778464229
aF0.2784661428234124
aF1.781040568587582
aF-1.3713932250287226
aa(lp115
a(lp116
ag0
(g35
g2
Ntp117
Rp118
(lp119
I2
aI396908557
ababag0
(g28
g2
Ntp120
Rp121
(lp122
(lp123
F0.6606139137973565
aF-0.9381561119332026
aF-0.5035097846586344
aF0.8212030697032194
aF0.2874623780021694
aF1.7587651117098622
aF-1.254514011488213
aa(lp124
a(lp125
ag0
(g35
g2
Ntp126
Rp127
(lp128
I2
aI630666983
ababag0
(g28
g2
Ntp129
Rp130
(lp131
(lp132
F0.6390850022889084
aF-0.9316877292330902
aF-0.5098355145624861
aF0.840660261560016
aF0.29645861318092637
aF1.7364896548321425
aF-1.137634797947703
aa(lp133
a(lp134
ag0
(g35
g2
Ntp135
Rp136
(lp137
I2
aI864425411
ababag0
(g28
g2
Ntp138
Rp139
(lp140
(lp141
F0.6175560907804605
aF-0.9252193465329778
aF-0.5161612444663378
aF0.8601174534168126
aF0.30545484835968334
aF1.7142141979544225
aF-1.0207555844071934
aa(lp142
a(lp143
ag0
(g35
g2
Ntp144
Rp145
(lp146
I3
aI98183838
ababag0
(g28
g2
Ntp147
Rp148
(lp149
(lp150
F0.5960271792720125
aF-0.9187509638328655
aF-0.5224869743701895
aF0.8795746452736091
aF0.3144510835384403
aF1.6919387410767026
aF-0.9038763708666837
aa(lp151
a(lp152
ag0
(g35
g2
Ntp153
Rp154
(lp155
I3
aI331942266
ababag0
(g28
g2
Ntp156
Rp157
(lp158
(lp159
F0.5744982677635645
aF-0.9122825811327531
aF-0.5288127042740413
aF0.8990318371304057
aF0.32344731871719734
aF1.669663284198983
aF-0.7869971573261737
aa(lp160
a(lp161
ag0
(g35
g2
Ntp162
Rp163
(lp164
I3
aI565700693
ababag0
(g28
g2
Ntp165
Rp166
(lp167
(lp168
F0.5529693562551166
aF-0.9058141984326407
aF-0.535138434177893
aF0.9184890289872022
aF0.3324435538959543
aF1.647387827321263
aF-0.6701179437856641
aa(lp169
a(lp170
ag0
(g35
g2
Ntp171
Rp172
(lp173
I3
aI799459119
ababag0
(g28
g2
Ntp174
Rp175
(lp176
(lp177
F0.5314404447466686
aF-0.8993458157325283
aF-0.5414641640817447
aF0.9379462208439988
aF0.3414397890747113
aF1.625112370443543
aF-0.5532387302451541
aa(lp178
a(lp179
ag0
(g35
g2
Ntp180
Rp181
(lp182
I4
aI33217546
ababag0
(g28
g2
Ntp183
Rp184
(lp185
(lp186
F0.5099115332382207
aF-0.892877433032416
aF-0.5477898939855964
aF0.9574034127007953
aF0.35043602425346826
aF1.6028369135658234
aF-0.4363595167046445
aa(lp187
a(lp188
ag0
(g35
g2
Ntp189
Rp190
(lp191
I4
aI266975974
ababag0
(g28
g2
Ntp192
Rp193
(lp194
(lp195
F0.4883826217297727
aF-0.8864090503323035
aF-0.5541156238894481
aF0.9768606045575919
aF0.35943225943222523
aF1.5805614566881034
aF-0.31948030316413456
aa(lp196
a(lp197
ag0
(g35
g2
Ntp198
Rp199
(lp200
I4
aI500734400
ababag0
(g28
g2
Ntp201
Rp202
(lp203
(lp204
F0.46685371022132477
aF-0.8799406676321911
aF-0.5604413537932998
aF0.9963177964143884
aF0.3684284946109822
aF1.5582859998103835
aF-0.2026010896236249
aa(lp205
a(lp206
ag0
(g35
g2
Ntp207
Rp208
(lp209
I4
aI734492828
ababag0
(g28
g2
Ntp210
Rp211
(lp212
(lp213
F0.44532479871287683
aF-0.8734722849320787
aF-0.5667670836971516
aF1.015774988271185
aF0.3774247297897392
aF1.5360105429326638
aF-0.08572187608311525
aa(lp214
a(lp215
ag0
(g35
g2
Ntp216
Rp217
(lp218
I4
aI968251255
ababag0
(g28
g2
Ntp219
Rp220
(lp221
(lp222
F0.4237958872044288
aF-0.8670039022319664
aF-0.5730928136010033
aF1.0352321801279816
aF0.38642096496849615
aF1.513735086054944
aF0.03115733745739469
aa(lp223
a(lp224
ag0
(g35
g2
Ntp225
Rp226
(lp227
I5
aI202009681
ababag0
(g28
g2
Ntp228
Rp229
(lp230
(lp231
F0.40226697569598086
aF-0.860535519531854
aF-0.579418543504855
aF1.054689371984778
aF0.3954172001472531
aF1.491459629177224
aF0.14803655099790433
aa(lp232
a(lp233
ag0
(g35
g2
Ntp234
Rp235
(lp236
I5
aI435768108
ababag0
(g28
g2
Ntp237
Rp238
(lp239
(lp240
F0.3807380641875329
aF-0.8540671368317416
aF-0.5857442734087067
aF1.0741465638415746
aF0.4044134353260101
aF1.4691841722995043
aF0.264915764538414
aa(lp241
a(lp242
ag0
(g35
g2
Ntp243
Rp244
(lp245
I5
aI669526536
ababag0
(g28
g2
Ntp246
Rp247
(lp248
(lp249
F0.35920915267908493
aF-0.8475987541316292
aF-0.5920700033125584
aF1.0936037556983713
aF0.4134096705047671
aF1.4469087154217843
aF0.38179497807892393
aa(lp250
a(lp251
ag0
(g35
g2
Ntp252
Rp253
(lp254
I5
aI903284963
ababag0
(g28
g2
Ntp255
Rp256
(lp257
(lp258
F0.33768024117063694
aF-0.8411303714315169
aF-0.5983957332164102
aF1.1130609475551678
aF0.4224059056835241
aF1.4246332585440644
aF0.4986741916194339
aa(lp259
a(lp260
ag0
(g35
g2
Ntp261
Rp262
(lp263
I6
aI137043390
ababag0
(g28
g2
Ntp264
Rp265
(lp266
(lp267
F0.31615132966218906
aF-0.8346619887314045
aF-0.6047214631202619
aF1.1325181394119643
aF0.431402140862281
aF1.4023578016663447
aF0.6155534051599433
aa(lp268
a(lp269
ag0
(g35
g2
Ntp270
Rp271
(lp272
I6
aI370801818
ababag0
(g28
g2
Ntp273
Rp274
(lp275
(lp276
F0.2946224181537411
aF-0.8281936060312921
aF-0.6110471930241136
aF1.1519753312687608
aF0.44039837604103804
aF1.3800823447886248
aF0.7324326187004532
aa(lp277
a(lp278
ag0
(g35
g2
Ntp279
Rp280
(lp281
I6
aI604560245
ababag0
(g28
g2
Ntp282
Rp283
(lp284
(lp285
F0.2730935066452931
aF-0.8217252233311797
aF-0.6173729229279653
aF1.1714325231255573
aF0.449394611219795
aF1.3578068879109049
aF0.8493118322409631
aa(lp286
a(lp287
ag0
(g35
g2
Ntp288
Rp289
(lp290
I6
aI838318671
ababag0
(g28
g2
Ntp291
Rp292
(lp293
(lp294
F0.2515645951368451
aF-0.8152568406310674
aF-0.623698652831817
aF1.190889714982354
aF0.45839084639855204
aF1.335531431033185
aF0.9661910457814731
aa(lp295
a(lp296
ag0
(g35
g2
Ntp297
Rp298
(lp299
I7
aI72077099
ababag0
(g28
g2
Ntp300
Rp301
(lp302
(lp303
F0.23003568362839721
aF-0.808788457930955
aF-0.6300243827356687
aF1.2103469068391506
aF0.46738708157730896
aF1.3132559741554652
aF1.0830702593219823
aa(lp304
a(lp305
ag0
(g35
g2
Ntp306
Rp307
(lp308
I7
aI305835526
ababag0
(g28
g2
Ntp309
Rp310
(lp311
(lp312
F0.20850677211994922
aF-0.8023200752308426
aF-0.6363501126395205
aF1.229804098695947
aF0.47638331675606593
aF1.2909805172777453
aF1.1999494728624924
aa(lp313
a(lp314
ag0
(g35
g2
Ntp315
Rp316
(lp317
I7
aI539593952
ababag0
(g28
g2
Ntp318
Rp319
(lp320
(lp321
F0.1869778606115012
aF-0.7958516925307302
aF-0.6426758425433722
aF1.2492612905527436
aF0.48537955193482296
aF1.2687050604000256
aF1.3168286864030023
aa(lp322
a(lp323
ag0
(g35
g2
Ntp324
Rp325
(lp326
I7
aI773352380
ababag0
(g28
g2
Ntp327
Rp328
(lp329
(lp330
F0.16544894910305333
aF-0.7893833098306179
aF-0.6490015724472239
aF1.26871848240954
aF0.4943757871135799
aF1.2464296035223057
aF1.4337078999435116
aa(lp331
a(lp332
ag0
(g35
g2
Ntp333
Rp334
(lp335
I8
aI7110807
ababag0
(g28
g2
Ntp336
Rp337
(lp338
(lp339
F0.14392003759460534
aF-0.7829149271305055
aF-0.6553273023510756
aF1.2881756742663368
aF0.5033720222923369
aF1.2241541466445858
aF1.5505871134840217
aa(lp340
a(lp341
ag0
(g35
g2
Ntp342
Rp343
(lp344
I8
aI240869233
ababag0
(g28
g2
Ntp345
Rp346
(lp347
(lp348
F0.12239112608615735
aF-0.7764465444303931
aF-0.6616530322549273
aF1.3076328661231333
aF0.5123682574710938
aF1.201878689766866
aF1.6674663270245316
aa(lp349
a(lp350
ag0
(g35
g2
Ntp351
Rp352
(lp353
I8
aI474627660
ababag0
(g28
g2
Ntp354
Rp355
(lp356
(lp357
F0.10086221457770936
aF-0.7699781617302807
aF-0.667978762158779
aF1.3270900579799298
aF0.5213644926498509
aF1.1796032328891461
aF1.7843455405650415
aa(lp358
a(lp359
ag0
(g35
g2
Ntp360
Rp361
(lp362
I8
aI708386087
ababag0
(g28
g2
Ntp363
Rp364
(lp365
(lp366
F0.07933330306926147
aF-0.7635097790301684
aF-0.6743044920626308
aF1.3465472498367264
aF0.5303607278286078
aF1.1573277760114262
aF1.901224754105551
aa(lp367
a(lp368
ag0
(g35
g2
Ntp369
Rp370
(lp371
I8
aI942144515
ababag0
(g28
g2
Ntp372
Rp373
(lp374
(lp375
F0.057804391560813476
aF-0.757041396330056
aF-0.6806302219664825
aF1.366004441693523
aF0.5393569630073648
aF1.1350523191337065
aF2.0181039676460606
aa(lp376
a(lp377
ag0
(g35
g2
Ntp378
Rp379
(lp380
I9
aI175902943
ababag0
(g28
g2
Ntp381
Rp382
(lp383
(lp384
F0.036275480052365486
aF-0.7505730136299436
aF-0.6869559518703342
aF1.3854616335503196
aF0.5483531981861218
aF1.1127768622559866
aF2.1349831811865707
aa(lp385
a(lp386
ag0
(g35
g2
Ntp387
Rp388
(lp389
I9
aI409661370
ababag0
(g28
g2
Ntp390
Rp391
(lp392
(lp393
F0.014746568543917598
aF-0.7441046309298313
aF-0.6932816817741859
aF1.404918825407116
aF0.5573494333648787
aF1.090501405378267
aF2.25186239472708
aa(lp394
a(lp395
ag0
(g35
g2
Ntp396
Rp397
(lp398
I9
aI643419797
ababag0
(g28
g2
Ntp399
Rp400
(lp401
(lp402
F-0.006782342964530395
aF-0.7376362482297188
aF-0.6996074116780376
aF1.4243760172639126
aF0.5663456685436358
aF1.068225948500547
aF2.36874160826759
aa(lp403
a(lp404
ag0
(g35
g2
Ntp405
Rp406
(lp407
I9
aI877178223
ababag0
(g28
g2
Ntp408
Rp409
(lp410
(lp411
F-0.028311254472978387
aF-0.7311678655296064
aF-0.7059331415818894
aF1.4438332091207091
aF0.5753419037223927
aF1.045950491622827
aF2.4856208218081
aa(lp412
a(lp413
ag0
(g35
g2
Ntp414
Rp415
(lp416
I10
aI110936650
ababag0
(g28
g2
Ntp417
Rp418
(lp419
(lp420
F-0.04984016598142638
aF-0.724699482829494
aF-0.7122588714857411
aF1.4632904009775058
aF0.5843381389011497
aF1.0236750347451071
aF2.60250003534861
aa(lp421
a(lp422
ag0
(g35
g2
Ntp423
Rp424
(lp425
I10
aI344695078
ababag0
(g28
g2
Ntp426
Rp427
(lp428
(lp429
F-0.07136907748987427
aF-0.7182311001293817
aF-0.7185846013895928
aF1.4827475928343024
aF0.5933343740799066
aF1.0013995778673874
aF2.719379248889119
aa(lp430
a(lp431
ag0
(g35
g2
Ntp432
Rp433
(lp434
I10
aI627100726
ababag0
(g28
g2
Ntp435
Rp436
(lp437
(lp438
F-0.09289798899832226
aF-0.7117627174292693
aF-0.7249103312934445
aF1.5022047846910989
aF0.6023306092586637
aF0.9791241209896675
aF2.836258462429629
aa(lp439
a(lp440
ag0
(g35
g2
Ntp441
Rp442
(lp443
I11
aI310859153
ababaabag0
(cmoveit_msgs.msg._MultiDOFJointTrajectory
MultiDOFJointTrajectory
p444
g2
Ntp445
Rp446
(lp447
g0
(g10
g2
Ntp448
Rp449
(lp450
I0
ag0
(g14
g2
Ntp451
Rp452
(lp453
I0
aI0
abaS''
p454
abag19
a(lp455
abab.