ccopy_reg
_reconstructor
p0
(cmoveit_msgs.msg._RobotTrajectory
RobotTrajectory
p1
c__builtin__
object
p2
Ntp3
Rp4
(lp5
g0
(ctrajectory_msgs.msg._JointTrajectory
JointTrajectory
p6
g2
Ntp7
Rp8
(lp9
g0
(cstd_msgs.msg._Header
Header
p10
g2
Ntp11
Rp12
(lp13
I0
ag0
(cgenpy.rostime
Time
p14
g2
Ntp15
Rp16
(lp17
I0
aI0
abaS'/base'
p18
aba(lp19
S'left_s0'
p20
aS'left_s1'
p21
aS'left_e0'
p22
aS'left_e1'
p23
aS'left_w0'
p24
aS'left_w1'
p25
aS'left_w2'
p26
aa(lp27
g0
(ctrajectory_msgs.msg._JointTrajectoryPoint
JointTrajectoryPoint
p28
g2
Ntp29
Rp30
(lp31
(lp32
F-0.06979612576904297
aF-1.0135778044372559
aF-1.1823156909118653
aF1.9381847232788088
aF0.6707330987365723
aF1.0220146987609864
aF-0.5042961834411621
aa(lp33
a(lp34
ag0
(cgenpy.rostime
Duration
p35
g2
Ntp36
Rp37
(lp38
I0
aI0
ababag0
(g28
g2
Ntp39
Rp40
(lp41
(lp42
F-0.0569300221622963
aF-1.0030473398088207
aF-1.0774500645884517
aF1.9524456683532483
aF0.6660182444150716
aF1.0046132294237866
aF-0.4970995168025471
aa(lp43
a(lp44
ag0
(g35
g2
Ntp45
Rp46
(lp47
I0
aI458391208
ababag0
(g28
g2
Ntp48
Rp49
(lp50
(lp51
F-0.04406391855554962
aF-0.9925168751803852
aF-0.9725844382650384
aF1.966706613427688
aF0.661303390093571
aF0.9872117600865871
aF-0.4899028501639321
aa(lp52
a(lp53
ag0
(g35
g2
Ntp54
Rp55
(lp56
I0
aI846782417
ababag0
(g28
g2
Ntp57
Rp58
(lp59
(lp60
F-0.03119781494880295
aF-0.98198641055195
aF-0.8677188119416248
aF1.9809675585021276
aF0.6565885357720703
aF0.9698102907493873
aF-0.48270618352531713
aa(lp61
a(lp62
ag0
(g35
g2
Ntp63
Rp64
(lp65
I1
aI235173625
ababag0
(g28
g2
Ntp66
Rp67
(lp68
(lp69
F-0.018331711342056276
aF-0.9714559459235147
aF-0.7628531856182114
aF1.9952285035765671
aF0.6518736814505697
aF0.9524088214121876
aF-0.4755095168867021
aa(lp70
a(lp71
ag0
(g35
g2
Ntp72
Rp73
(lp74
I1
aI623564834
ababag0
(g28
g2
Ntp75
Rp76
(lp77
(lp78
F-0.005465607735309603
aF-0.9609254812950794
aF-0.6579875592947979
aF2.009489448651007
aF0.647158827129069
aF0.935007352074988
aF-0.4683128502480871
aa(lp79
a(lp80
ag0
(g35
g2
Ntp81
Rp82
(lp83
I2
aI11956043
ababag0
(g28
g2
Ntp84
Rp85
(lp86
(lp87
F0.00740049587143707
aF-0.9503950166666442
aF-0.5531219329713843
aF2.0237503937254466
aF0.6424439728075684
aF0.9176058827377882
aF-0.46111618360947215
aa(lp88
a(lp89
ag0
(g35
g2
Ntp90
Rp91
(lp92
I2
aI400347250
ababag0
(g28
g2
Ntp93
Rp94
(lp95
(lp96
F0.020266599478183742
aF-0.9398645520382088
aF-0.4482563066479709
aF2.038011338799886
aF0.6377291184860677
aF0.9002044134005885
aF-0.45391951697085714
aa(lp97
a(lp98
ag0
(g35
g2
Ntp99
Rp100
(lp101
I2
aI788738460
ababag0
(g28
g2
Ntp102
Rp103
(lp104
(lp105
F0.033132703084930416
aF-0.9293340874097735
aF-0.3433906803245574
aF2.0522722838743257
aF0.6330142641645671
aF0.8828029440633889
aF-0.4467228503322421
aa(lp106
a(lp107
ag0
(g35
g2
Ntp108
Rp109
(lp110
I3
aI177129668
ababag0
(g28
g2
Ntp111
Rp112
(lp113
(lp114
F0.048758583846916774
aF-0.91387135496746
aF-0.21370095580969914
aF2.067123274423245
aF0.6292385755159251
aF0.85585612659055
aF-0.4397253551481882
aa(lp115
a(lp116
ag0
(g35
g2
Ntp117
Rp118
(lp119
I3
aI657461981
ababag0
(g28
g2
Ntp120
Rp121
(lp122
(lp123
F0.06438446460890314
aF-0.8984086225251465
aF-0.08401123129484087
aF2.081974264972165
aF0.6254628868672831
aF0.8289093091177112
aF-0.4327278599641343
aa(lp124
a(lp125
ag0
(g35
g2
Ntp126
Rp127
(lp128
I4
aI137794293
ababag0
(g28
g2
Ntp129
Rp130
(lp131
(lp132
F0.0800103453708895
aF-0.882945890082833
aF0.04567849322001741
aF2.0968252555210842
aF0.6216871982186412
aF0.8019624916448723
aF-0.4257303647800804
aa(lp133
a(lp134
ag0
(g35
g2
Ntp135
Rp136
(lp137
I4
aI618126606
ababag0
(g28
g2
Ntp138
Rp139
(lp140
(lp141
F0.09563622613287585
aF-0.8674831576405194
aF0.17536821773487565
aF2.1116762460700036
aF0.6179115095699992
aF0.7750156741720334
aF-0.4187328695960265
aa(lp142
a(lp143
ag0
(g35
g2
Ntp144
Rp145
(lp146
I5
aI98458919
ababag0
(g28
g2
Ntp147
Rp148
(lp149
(lp150
F0.11126210689486223
aF-0.852020425198206
aF0.3050579422497339
aF2.126527236618923
aF0.6141358209213572
aF0.7480688566991947
aF-0.41173537441197267
aa(lp151
a(lp152
ag0
(g35
g2
Ntp153
Rp154
(lp155
I5
aI578791233
ababag0
(g28
g2
Ntp156
Rp157
(lp158
(lp159
F0.12688798765684858
aF-0.8365576927558924
aF0.4347476667645922
aF2.1413782271678423
aF0.6103601322727152
aF0.7211220392263558
aF-0.40473787922791876
aa(lp160
a(lp161
ag0
(g35
g2
Ntp162
Rp163
(lp164
I6
aI59123546
ababag0
(g28
g2
Ntp165
Rp166
(lp167
(lp168
F0.13945602032481652
aF-0.8182507344381127
aF0.5441751701133977
aF2.1479020119494283
aF0.6116060111841244
aF0.6866855050403718
aF-0.4029365047120637
aa(lp169
a(lp170
ag0
(g35
g2
Ntp171
Rp172
(lp173
I6
aI464410596
ababag0
(g28
g2
Ntp174
Rp175
(lp176
(lp177
F0.1520240529927845
aF-0.7999437761203331
aF0.6536026734622032
aF2.1544257967310143
aF0.6128518900955334
aF0.6522489708543878
aF-0.4011351301962087
aa(lp178
a(lp179
ag0
(g35
g2
Ntp180
Rp181
(lp182
I6
aI869697645
ababag0
(g28
g2
Ntp183
Rp184
(lp185
(lp186
F0.16459208566075242
aF-0.7816368178025533
aF0.7630301768110087
aF2.1609495815126003
aF0.6140977690069426
aF0.6178124366684039
aF-0.3993337556803537
aa(lp187
a(lp188
ag0
(g35
g2
Ntp189
Rp190
(lp191
I7
aI274984694
ababag0
(g28
g2
Ntp192
Rp193
(lp194
(lp195
F0.17716011832872036
aF-0.7633298594847736
aF0.8724576801598142
aF2.1674733662941863
aF0.6153436479183517
aF0.5833759024824199
aF-0.3975323811644987
aa(lp196
a(lp197
ag0
(g35
g2
Ntp198
Rp199
(lp200
I7
aI680271743
ababag0
(g28
g2
Ntp201
Rp202
(lp203
(lp204
F0.18972815099668833
aF-0.745022901166994
aF0.9818851835086198
aF2.1739971510757727
aF0.6165895268297608
aF0.548939368296436
aF-0.39573100664864364
aa(lp205
a(lp206
ag0
(g35
g2
Ntp207
Rp208
(lp209
I8
aI85558794
ababag0
(g28
g2
Ntp210
Rp211
(lp212
(lp213
F0.20229618366465626
aF-0.7267159428492143
aF1.0913126868574252
aF2.1805209358573587
aF0.6178354057411699
aF0.514502834110452
aF-0.39392963213278864
aa(lp214
a(lp215
ag0
(g35
g2
Ntp216
Rp217
(lp218
I8
aI490845843
ababag0
(g28
g2
Ntp219
Rp220
(lp221
(lp222
F0.21426807445506674
aF-0.6928559971527457
aF1.2098639442570147
aF2.1715704000532376
aF0.6310027511183987
aF0.4459961702268994
aF-0.4029188418624536
aa(lp223
a(lp224
ag0
(g35
g2
Ntp225
Rp226
(lp227
I8
aI929924573
ababag0
(g28
g2
Ntp228
Rp229
(lp230
(lp231
F0.22623996524547724
aF-0.6589960514562772
aF1.3284152016566042
aF2.162619864249117
aF0.6441700964956273
aF0.3774895063433468
aF-0.4119080515921185
aa(lp232
a(lp233
ag0
(g35
g2
Ntp234
Rp235
(lp236
I9
aI369003304
ababag0
(g28
g2
Ntp237
Rp238
(lp239
(lp240
F0.23821185603588774
aF-0.6251361057598086
aF1.4469664590561937
aF2.153669328444996
aF0.6573374418728559
aF0.30898284245979424
aF-0.42089726132178346
aa(lp241
a(lp242
ag0
(g35
g2
Ntp243
Rp244
(lp245
I9
aI808082036
ababag0
(g28
g2
Ntp246
Rp247
(lp248
(lp249
F0.25018374682629824
aF-0.59127616006334
aF1.5655177164557832
aF2.144718792640875
aF0.6705047872500847
aF0.2404761785762417
aF-0.4298864710514484
aa(lp250
a(lp251
ag0
(g35
g2
Ntp252
Rp253
(lp254
I10
aI247160768
ababag0
(g28
g2
Ntp255
Rp256
(lp257
(lp258
F0.2529820933346535
aF-0.548883536740473
aF1.6232823103572145
aF2.1107866395347537
aF0.6987368353074667
aF0.14950036455325372
aF-0.45446404278570995
aa(lp259
a(lp260
ag0
(g35
g2
Ntp261
Rp262
(lp263
I10
aI550413480
ababag0
(g28
g2
Ntp264
Rp265
(lp266
(lp267
F0.2557804398430088
aF-0.5064909134176058
aF1.6810469042586458
aF2.0768544864286325
aF0.7269688833648487
aF0.0585245505302657
aF-0.4790416145199715
aa(lp268
a(lp269
ag0
(g35
g2
Ntp270
Rp271
(lp272
I10
aI853666194
ababag0
(g28
g2
Ntp273
Rp274
(lp275
(lp276
F0.25857878635136405
aF-0.46409829009473863
aF1.738811498160077
aF2.0429223333225117
aF0.7552009314222307
aF-0.0324512634927223
aF-0.5036191862542331
aa(lp277
a(lp278
ag0
(g35
g2
Ntp279
Rp280
(lp281
I11
aI156918907
ababag0
(g28
g2
Ntp282
Rp283
(lp284
(lp285
F0.2613771328597193
aF-0.4217056667718715
aF1.7965760920615084
aF2.0089901802163905
aF0.7834329794796127
aF-0.1234270775157103
aF-0.5281967579884946
aa(lp286
a(lp287
ag0
(g35
g2
Ntp288
Rp289
(lp290
I11
aI460171621
ababag0
(g28
g2
Ntp291
Rp292
(lp293
(lp294
F0.25729532115653314
aF-0.37291353522920534
aF1.808750688339321
aF1.9563218141337693
aF0.8229635545471097
aF-0.23125475414327487
aF-0.5644656012262037
aa(lp295
a(lp296
ag0
(g35
g2
Ntp297
Rp298
(lp299
I11
aI819597209
ababag0
(g28
g2
Ntp300
Rp301
(lp302
(lp303
F0.253213509453347
aF-0.32412140368653924
aF1.8209252846171335
aF1.9036534480511482
aF0.8624941296146067
aF-0.33908243077083944
aF-0.6007344444639127
aa(lp304
a(lp305
ag0
(g35
g2
Ntp306
Rp307
(lp308
I12
aI179022799
ababag0
(g28
g2
Ntp309
Rp310
(lp311
(lp312
F0.2491316977501608
aF-0.27532927214387315
aF1.8330998808949461
aF1.8509850819685272
aF0.9020247046821037
aF-0.44691010739840403
aF-0.6370032877016216
aa(lp313
a(lp314
ag0
(g35
g2
Ntp315
Rp316
(lp317
I12
aI538448387
ababag0
(g28
g2
Ntp318
Rp319
(lp320
(lp321
F0.24504988604697467
aF-0.226537140601207
aF1.8452744771727587
aF1.798316715885906
aF0.9415552797496007
aF-0.5547377840259686
aF-0.6732721309393307
aa(lp322
a(lp323
ag0
(g35
g2
Ntp324
Rp325
(lp326
I12
aI897873975
ababag0
(g28
g2
Ntp327
Rp328
(lp329
(lp330
F0.23927083015083214
aF-0.19116482703063004
aF1.8331286535252476
aF1.7548772660634917
aF0.9729305640213165
aF-0.6341126184908235
aF-0.7026474804326689
aa(lp331
a(lp332
ag0
(g35
g2
Ntp333
Rp334
(lp335
I13
aI162456757
ababag0
(g28
g2
Ntp336
Rp337
(lp338
(lp339
F0.23349177425468964
aF-0.15579251346005307
aF1.8209828298777366
aF1.7114378162410777
aF1.0043058482930323
aF-0.7134874529556784
aF-0.7320228299260072
aa(lp340
a(lp341
ag0
(g35
g2
Ntp342
Rp343
(lp344
I13
aI427039539
ababag0
(g28
g2
Ntp345
Rp346
(lp347
(lp348
F0.22771271835854712
aF-0.12042019988947612
aF1.8088370062302255
aF1.6679983664186635
aF1.035681132564748
aF-0.7928622874205332
aF-0.7613981794193454
aa(lp349
a(lp350
ag0
(g35
g2
Ntp351
Rp352
(lp353
I13
aI691622321
ababag0
(g28
g2
Ntp354
Rp355
(lp356
(lp357
F0.2219336624624046
aF-0.08504788631889916
aF1.7966911825827143
aF1.6245589165962493
aF1.0670564168364638
aF-0.872237121885388
aF-0.7907735289126836
aa(lp358
a(lp359
ag0
(g35
g2
Ntp360
Rp361
(lp362
I13
aI956205102
ababag0
(g28
g2
Ntp363
Rp364
(lp365
(lp366
F0.21615460656626206
aF-0.04967557274832221
aF1.7845453589352034
aF1.5811194667738353
aF1.0984317011081794
aF-0.951611956350243
aF-0.8201488784060219
aa(lp367
a(lp368
ag0
(g35
g2
Ntp369
Rp370
(lp371
I14
aI220787883
ababag0
(g28
g2
Ntp372
Rp373
(lp374
(lp375
F0.21037555067011954
aF-0.014303259177745248
aF1.7723995352876922
aF1.537680016951421
aF1.1298069853798953
aF-1.0309867908150978
aF-0.8495242278993601
aa(lp376
a(lp377
ag0
(g35
g2
Ntp378
Rp379
(lp380
I14
aI485370664
ababag0
(g28
g2
Ntp381
Rp382
(lp383
(lp384
F0.20306757072696782
aF0.022491167330564808
aF1.7501226010571547
aF1.4900769642453402
aF1.1636930534316368
aF-1.1141064836365253
aF-0.8814976377267978
aa(lp385
a(lp386
ag0
(g35
g2
Ntp387
Rp388
(lp389
I14
aI762436307
ababag0
(g28
g2
Ntp390
Rp391
(lp392
(lp393
F0.19575959078381608
aF0.05928559383887486
aF1.7278456668266173
aF1.4424739115392595
aF1.197579121483378
aF-1.1972261764579526
aF-0.9134710475542355
aa(lp394
a(lp395
ag0
(g35
g2
Ntp396
Rp397
(lp398
I15
aI39501951
ababag0
(g28
g2
Ntp399
Rp400
(lp401
(lp402
F0.18845161084066436
aF0.09608002034718492
aF1.7055687325960798
aF1.3948708588331786
aF1.2314651895351194
aF-1.28034586927938
aF-0.9454444573816732
aa(lp403
a(lp404
ag0
(g35
g2
Ntp405
Rp406
(lp407
I15
aI316567594
ababag0
(g28
g2
Ntp408
Rp409
(lp410
(lp411
F0.17748964092593678
aF0.15127166010965
aF1.6721533312502737
aF1.3234662797740575
aF1.2822942916127316
aF-1.4050254085115212
aF-0.9934045721228296
aa(lp412
a(lp413
ag0
(g35
g2
Ntp414
Rp415
(lp416
I15
aI732166058
ababag0
(g28
g2
Ntp417
Rp418
(lp419
(lp420
F0.16652767101120916
aF0.2064632998721151
aF1.6387379299044675
aF1.2520617007149362
aF1.3331233936903435
aF-1.5297049477436626
aF-1.041364686863986
aa(lp421
a(lp422
ag0
(g35
g2
Ntp423
Rp424
(lp425
I16
aI437764521
ababaabag0
(cmoveit_msgs.msg._MultiDOFJointTrajectory
MultiDOFJointTrajectory
p426
g2
Ntp427
Rp428
(lp429
g0
(g10
g2
Ntp430
Rp431
(lp432
I0
ag0
(g14
g2
Ntp433
Rp434
(lp435
I0
aI0
abaS''
p436
abag19
a(lp437
abab.