ccopy_reg
_reconstructor
p0
(cmoveit_msgs.msg._RobotTrajectory
RobotTrajectory
p1
c__builtin__
object
p2
Ntp3
Rp4
(lp5
g0
(ctrajectory_msgs.msg._JointTrajectory
JointTrajectory
p6
g2
Ntp7
Rp8
(lp9
g0
(cstd_msgs.msg._Header
Header
p10
g2
Ntp11
Rp12
(lp13
I0
ag0
(cgenpy.rostime
Time
p14
g2
Ntp15
Rp16
(lp17
I0
aI0
abaS'/base'
p18
aba(lp19
S'left_s0'
p20
aS'left_s1'
p21
aS'left_e0'
p22
aS'left_e1'
p23
aS'left_w0'
p24
aS'left_w1'
p25
aS'left_w2'
p26
aa(lp27
g0
(ctrajectory_msgs.msg._JointTrajectoryPoint
JointTrajectoryPoint
p28
g2
Ntp29
Rp30
(lp31
(lp32
F-0.07401457293090821
aF-1.0216312035644532
aF-1.181548700518799
aF1.9343497713134767
aF0.6699661083435059
aF1.0323690690673828
aF-0.5023787074584961
aa(lp33
a(lp34
ag0
(cgenpy.rostime
Duration
p35
g2
Ntp36
Rp37
(lp38
I0
aI0
ababag0
(g28
g2
Ntp39
Rp40
(lp41
(lp42
F-0.057702465100893906
aF-1.0167352946291959
aF-1.087300251490589
aF1.925522138019965
aF0.6190960371889438
aF0.9656739977174795
aF-0.5292272511865148
aa(lp43
a(lp44
ag0
(g35
g2
Ntp45
Rp46
(lp47
I0
aI439068329
ababag0
(g28
g2
Ntp48
Rp49
(lp50
(lp51
F-0.0413903572708796
aF-1.0118393856939383
aF-0.9930518024623789
aF1.9166945047264532
aF0.5682259660343817
aF0.8989789263675763
aF-0.5560757949145334
aa(lp52
a(lp53
ag0
(g35
g2
Ntp54
Rp55
(lp56
I0
aI788136659
ababag0
(g28
g2
Ntp57
Rp58
(lp59
(lp60
F-0.0250782494408653
aF-1.006943476758681
aF-0.8988033534341687
aF1.9078668714329416
aF0.5173558948798196
aF0.8322838550176731
aF-0.5829243386425521
aa(lp61
a(lp62
ag0
(g35
g2
Ntp63
Rp64
(lp65
I1
aI137204989
ababag0
(g28
g2
Ntp66
Rp67
(lp68
(lp69
F-0.008766141610850993
aF-1.0020475678234235
aF-0.8045549044059587
aF1.8990392381394299
aF0.46648582372525754
aF0.7655887836677698
aF-0.6097728823705708
aa(lp70
a(lp71
ag0
(g35
g2
Ntp72
Rp73
(lp74
I1
aI486273318
ababag0
(g28
g2
Ntp75
Rp76
(lp77
(lp78
F0.007545966219163312
aF-0.9971516588881661
aF-0.7103064553777486
aF1.890211604845918
aF0.41561575257069544
aF0.6988937123178666
aF-0.6366214260985894
aa(lp79
a(lp80
ag0
(g35
g2
Ntp81
Rp82
(lp83
I1
aI835341648
ababag0
(g28
g2
Ntp84
Rp85
(lp86
(lp87
F0.023858074049177617
aF-0.9922557499529088
aF-0.6160580063495384
aF1.8813839715524066
aF0.3647456814161334
aF0.6321986409679633
aF-0.6634699698266081
aa(lp88
a(lp89
ag0
(g35
g2
Ntp90
Rp91
(lp92
I2
aI184409978
ababag0
(g28
g2
Ntp93
Rp94
(lp95
(lp96
F0.04017018187919192
aF-0.9873598410176514
aF-0.5218095573213284
aF1.8725563382588948
aF0.3138756102615713
aF0.56550356961806
aF-0.6903185135546268
aa(lp97
a(lp98
ag0
(g35
g2
Ntp99
Rp100
(lp101
I2
aI533478307
ababag0
(g28
g2
Ntp102
Rp103
(lp104
(lp105
F0.056482289709206226
aF-0.982463932082394
aF-0.4275611082931183
aF1.863728704965383
aF0.2630055391070092
aF0.4988084982681568
aF-0.7171670572826454
aa(lp106
a(lp107
ag0
(g35
g2
Ntp108
Rp109
(lp110
I2
aI882546636
ababag0
(g28
g2
Ntp111
Rp112
(lp113
(lp114
F0.07095442253885856
aF-0.9757583241509413
aF-0.3396795928616482
aF1.8553142625744583
aF0.21972051968458198
aF0.43539876939255234
aF-0.7413513911218245
aa(lp115
a(lp116
ag0
(g35
g2
Ntp117
Rp118
(lp119
I3
aI208033732
ababag0
(g28
g2
Ntp120
Rp121
(lp122
(lp123
F0.08542655536851088
aF-0.9690527162194885
aF-0.2517980774301782
aF1.8468998201835336
aF0.17643550026215477
aF0.3719890405169479
aF-0.7655357249610035
aa(lp124
a(lp125
ag0
(g35
g2
Ntp126
Rp127
(lp128
I3
aI533520826
ababag0
(g28
g2
Ntp129
Rp130
(lp131
(lp132
F0.09989868819816321
aF-0.9623471082880357
aF-0.16391656199870816
aF1.838485377792609
aF0.13315048083972758
aF0.30857931164134345
aF-0.7897200588001825
aa(lp133
a(lp134
ag0
(g35
g2
Ntp135
Rp136
(lp137
I3
aI859007920
ababag0
(g28
g2
Ntp138
Rp139
(lp140
(lp141
F0.11437082102781554
aF-0.955641500356583
aF-0.07603504656723811
aF1.8300709354016842
aF0.08986546141730037
aF0.245169582765739
aF-0.8139043926393615
aa(lp142
a(lp143
ag0
(g35
g2
Ntp144
Rp145
(lp146
I4
aI184495014
ababag0
(g28
g2
Ntp147
Rp148
(lp149
(lp150
F0.12884295385746786
aF-0.9489358924251303
aF0.011846468864231928
aF1.8216564930107595
aF0.04658044199487317
aF0.18175985389013455
aF-0.8380887264785406
aa(lp151
a(lp152
ag0
(g35
g2
Ntp153
Rp154
(lp155
I4
aI509982108
ababag0
(g28
g2
Ntp156
Rp157
(lp158
(lp159
F0.14331508668712017
aF-0.9422302844936775
aF0.09972798429570197
aF1.8132420506198348
aF0.003295422572445965
aF0.11835012501453009
aF-0.8622730603177196
aa(lp160
a(lp161
ag0
(g35
g2
Ntp162
Rp163
(lp164
I4
aI835469202
ababag0
(g28
g2
Ntp165
Rp166
(lp167
(lp168
F0.15778721951677252
aF-0.9355246765622247
aF0.187609499727172
aF1.80482760822891
aF-0.03998959684998124
aF0.05494039613892563
aF-0.8864573941568986
aa(lp169
a(lp170
ag0
(g35
g2
Ntp171
Rp172
(lp173
I5
aI160956297
ababag0
(g28
g2
Ntp174
Rp175
(lp176
(lp177
F0.17225935234642484
aF-0.928819068630772
aF0.27549101515864205
aF1.7964131658379854
aF-0.08327461627240844
aF-0.008469332736678825
aF-0.9106417279960777
aa(lp178
a(lp179
ag0
(g35
g2
Ntp180
Rp181
(lp182
I5
aI486443390
ababag0
(g28
g2
Ntp183
Rp184
(lp185
(lp186
F0.18664892945166267
aF-0.9150523940656474
aF0.375687879475962
aF1.786295751723651
aF-0.12076117088328502
aF-0.08425472463935466
aF-0.935782946744744
aa(lp187
a(lp188
ag0
(g35
g2
Ntp189
Rp190
(lp191
I5
aI857542888
ababag0
(g28
g2
Ntp192
Rp193
(lp194
(lp195
F0.2010385065569005
aF-0.9012857195005227
aF0.4758847437932819
aF1.776178337609317
aF-0.1582477254941616
aF-0.16004011654203049
aF-0.9609241654934104
aa(lp196
a(lp197
ag0
(g35
g2
Ntp198
Rp199
(lp200
I6
aI228642385
ababag0
(g28
g2
Ntp201
Rp202
(lp203
(lp204
F0.21542808366213834
aF-0.8875190449353981
aF0.5760816081106018
aF1.7660609234949827
aF-0.19573428010503818
aF-0.23582550844470632
aF-0.9860653842420768
aa(lp205
a(lp206
ag0
(g35
g2
Ntp207
Rp208
(lp209
I6
aI599741883
ababag0
(g28
g2
Ntp210
Rp211
(lp212
(lp213
F0.2262202664910667
aF-0.8771940390115547
aF0.6512292563485917
aF1.7584728629092319
aF-0.22384919606319562
aF-0.2926645523717132
aF-1.0049212983035765
aa(lp214
a(lp215
ag0
(g35
g2
Ntp216
Rp217
(lp218
I6
aI878066505
ababag0
(g28
g2
Ntp219
Rp220
(lp221
(lp222
F0.23701244931999507
aF-0.8668690330877111
aF0.7263769045865818
aF1.7508848023234813
aF-0.25196411202135305
aF-0.3495035962987201
aF-1.0237772123650764
aa(lp223
a(lp224
ag0
(g35
g2
Ntp225
Rp226
(lp227
I7
aI156391130
ababag0
(g28
g2
Ntp228
Rp229
(lp230
(lp231
F0.24780463214892345
aF-0.8565440271638677
aF0.8015245528245717
aF1.7432967417377307
aF-0.28007902797951045
aF-0.4063426402257269
aF-1.0426331264265762
aa(lp232
a(lp233
ag0
(g35
g2
Ntp234
Rp235
(lp236
I7
aI434715752
ababag0
(g28
g2
Ntp237
Rp238
(lp239
(lp240
F0.2585968149778518
aF-0.8462190212400242
aF0.8766722010625616
aF1.73570868115198
aF-0.3081939439376679
aF-0.4631816841527338
aF-1.061489040488076
aa(lp241
a(lp242
ag0
(g35
g2
Ntp243
Rp244
(lp245
I7
aI713040376
ababag0
(g28
g2
Ntp246
Rp247
(lp248
(lp249
F0.26562649208164174
aF-0.8252135506901181
aF0.9514013309929213
aF1.7272440306479937
aF-0.31534029162000493
aF-0.5258257061582144
aF-1.0759734196813837
aa(lp250
a(lp251
ag0
(g35
g2
Ntp252
Rp253
(lp254
I7
aI989814930
ababag0
(g28
g2
Ntp255
Rp256
(lp257
(lp258
F0.2726561691854316
aF-0.8042080801402122
aF1.026130460923281
aF1.7187793801440077
aF-0.322486639302342
aF-0.5884697281636951
aF-1.0904577988746915
aa(lp259
a(lp260
ag0
(g35
g2
Ntp261
Rp262
(lp263
I8
aI266589486
ababag0
(g28
g2
Ntp264
Rp265
(lp266
(lp267
F0.27968584628922155
aF-0.7832026095903061
aF1.1008595908536407
aF1.7103147296400214
aF-0.329632986984679
aF-0.6511137501691758
aF-1.1049421780679993
aa(lp268
a(lp269
ag0
(g35
g2
Ntp270
Rp271
(lp272
I8
aI543364042
ababag0
(g28
g2
Ntp273
Rp274
(lp275
(lp276
F0.2867155233930115
aF-0.7621971390404
aF1.1755887207840003
aF1.7018500791360351
aF-0.3367793346670161
aF-0.7137577721746565
aF-1.1194265572613071
aa(lp277
a(lp278
ag0
(g35
g2
Ntp279
Rp280
(lp281
I8
aI820138596
ababag0
(g28
g2
Ntp282
Rp283
(lp284
(lp285
F0.29374520049680136
aF-0.741191668490494
aF1.2503178507143602
aF1.693385428632049
aF-0.3439256823493531
aF-0.7764017941801371
aF-1.1339109364546152
aa(lp286
a(lp287
ag0
(g35
g2
Ntp288
Rp289
(lp290
I9
aI96913152
ababag0
(g28
g2
Ntp291
Rp292
(lp293
(lp294
F0.3007748776005913
aF-0.7201861979405879
aF1.3250469806447198
aF1.6849207781280628
aF-0.3510720300316902
aF-0.8390458161856178
aF-1.148395315647923
aa(lp295
a(lp296
ag0
(g35
g2
Ntp297
Rp298
(lp299
I9
aI463687708
ababag0
(g28
g2
Ntp300
Rp301
(lp302
(lp303
F0.29659959325338037
aF-0.674200400146166
aF1.386205206766339
aF1.6755293295927798
aF-0.30111113769811665
aF-0.9067291093994485
aF-1.1488082053271675
aa(lp304
a(lp305
ag0
(g35
g2
Ntp306
Rp307
(lp308
I9
aI790199656
ababag0
(g28
g2
Ntp309
Rp310
(lp311
(lp312
F0.29242430890616944
aF-0.6282146023517441
aF1.447363432887958
aF1.6661378810574967
aF-0.2511502453645431
aF-0.9744124026132791
aF-1.1492210950064123
aa(lp313
a(lp314
ag0
(g35
g2
Ntp315
Rp316
(lp317
I10
aI16711604
ababag0
(g28
g2
Ntp318
Rp319
(lp320
(lp321
F0.2882490245589585
aF-0.5822288045573222
aF1.5085216590095774
aF1.6567464325222137
aF-0.20118935303096958
aF-1.0420956958271097
aF-1.1496339846856571
aa(lp322
a(lp323
ag0
(g35
g2
Ntp324
Rp325
(lp326
I10
aI243223552
ababag0
(g28
g2
Ntp327
Rp328
(lp329
(lp330
F0.2840737402117475
aF-0.5362430067629003
aF1.5696798851311966
aF1.6473549839869304
aF-0.15122846069739607
aF-1.1097789890409404
aF-1.150046874364902
aa(lp331
a(lp332
ag0
(g35
g2
Ntp333
Rp334
(lp335
I10
aI519735501
ababag0
(g28
g2
Ntp336
Rp337
(lp338
(lp339
F0.2688586058623647
aF-0.4793990149913062
aF1.5926365096723756
aF1.6404426808671695
aF-0.05575725797101324
aF-1.1577502274089784
aF-1.1344745047111089
aa(lp340
a(lp341
ag0
(g35
g2
Ntp342
Rp343
(lp344
I10
aI887972844
ababag0
(g28
g2
Ntp345
Rp346
(lp347
(lp348
F0.2536434715129819
aF-0.42255502321971217
aF1.6155931342135543
aF1.6335303777474084
aF0.03971394475536959
aF-1.205721465777016
aF-1.1189021350573158
aa(lp349
a(lp350
ag0
(g35
g2
Ntp351
Rp352
(lp353
I11
aI206210186
ababag0
(g28
g2
Ntp354
Rp355
(lp356
(lp357
F0.23842833716359907
aF-0.3657110314481181
aF1.638549758754733
aF1.6266180746276473
aF0.13518514748175242
aF-1.253692704145054
aF-1.1033297654035228
aa(lp358
a(lp359
ag0
(g35
g2
Ntp360
Rp361
(lp362
I11
aI524447528
ababag0
(g28
g2
Ntp363
Rp364
(lp365
(lp366
F0.22321320281421628
aF-0.30886703967652407
aF1.661506383295912
aF1.6197057715078862
aF0.23065635020813524
aF-1.301663942513092
aF-1.0877573957497297
aa(lp367
a(lp368
ag0
(g35
g2
Ntp369
Rp370
(lp371
I11
aI842684871
ababag0
(g28
g2
Ntp372
Rp373
(lp374
(lp375
F0.20063816846338556
aF-0.24478425192014863
aF1.6589952734501305
aF1.6144462319984731
aF0.3564677598630576
aF-1.3364938109839348
aF-1.0615281865405781
aa(lp376
a(lp377
ag0
(g35
g2
Ntp378
Rp379
(lp380
I12
aI262056236
ababag0
(g28
g2
Ntp381
Rp382
(lp383
(lp384
F0.1780631341125548
aF-0.18070146416377317
aF1.6564841636043492
aF1.60918669248906
aF0.48227916951798
aF-1.3713236794547776
aF-1.0352989773314267
aa(lp385
a(lp386
ag0
(g35
g2
Ntp387
Rp388
(lp389
I12
aI681427602
ababag0
(g28
g2
Ntp390
Rp391
(lp392
(lp393
F0.1554880997617241
aF-0.1166186764073977
aF1.653973053758568
aF1.6039271529796473
aF0.6080905791729023
aF-1.4061535479256202
aF-1.0090697681222751
aa(lp394
a(lp395
ag0
(g35
g2
Ntp396
Rp397
(lp398
I13
aI100798967
ababag0
(g28
g2
Ntp399
Rp400
(lp401
(lp402
F0.13291306541089337
aF-0.05253588865102225
aF1.6514619439127864
aF1.5986676134702342
aF0.7339019888278248
aF-1.440983416396463
aF-0.9828405589131236
aa(lp403
a(lp404
ag0
(g35
g2
Ntp405
Rp406
(lp407
I13
aI520170333
ababag0
(g28
g2
Ntp408
Rp409
(lp410
(lp411
F0.11540974250985692
aF-0.007401098151844812
aF1.6412986258866122
aF1.5957121750007415
aF0.8278896642406195
aF-1.4598228720779598
aF-0.9618021395885697
aa(lp412
a(lp413
ag0
(g35
g2
Ntp414
Rp415
(lp416
I13
aI833462584
ababag0
(g28
g2
Ntp417
Rp418
(lp419
(lp420
F0.09790641960882046
aF0.03773369234733263
aF1.6311353078604378
aF1.592756736531249
aF0.9218773396534142
aF-1.4786623277594564
aF-0.9407637202640158
aa(lp421
a(lp422
ag0
(g35
g2
Ntp423
Rp424
(lp425
I14
aI146754835
ababag0
(g28
g2
Ntp426
Rp427
(lp428
(lp429
F0.080403096707784
aF0.08286848284651008
aF1.6209719898342636
aF1.5898012980617562
aF1.015865015066209
aF-1.4975017834409532
aF-0.9197253009394619
aa(lp430
a(lp431
ag0
(g35
g2
Ntp432
Rp433
(lp434
I14
aI460047087
ababag0
(g28
g2
Ntp435
Rp436
(lp437
(lp438
F0.05414811235622932
aF0.15057066859527624
aF1.6057270127950023
aF1.5853681403575173
aF1.156846528185401
aF-1.5257609669631984
aF-0.8881676719526311
aa(lp439
a(lp440
ag0
(g35
g2
Ntp441
Rp442
(lp443
I14
aI929985464
ababag0
(g28
g2
Ntp444
Rp445
(lp446
(lp447
F0.027893128004674646
aF0.2182728543440424
aF1.5904820357557408
aF1.5809349826532784
aF1.2978280413045933
aF-1.5540201504854436
aF-0.8566100429658003
aa(lp448
a(lp449
ag0
(g35
g2
Ntp450
Rp451
(lp452
I15
aI679923842
ababaabag0
(cmoveit_msgs.msg._MultiDOFJointTrajectory
MultiDOFJointTrajectory
p453
g2
Ntp454
Rp455
(lp456
g0
(g10
g2
Ntp457
Rp458
(lp459
I0
ag0
(g14
g2
Ntp460
Rp461
(lp462
I0
aI0
abaS''
p463
abag19
a(lp464
abab.