ccopy_reg
_reconstructor
p0
(cmoveit_msgs.msg._RobotTrajectory
RobotTrajectory
p1
c__builtin__
object
p2
Ntp3
Rp4
(lp5
g0
(ctrajectory_msgs.msg._JointTrajectory
JointTrajectory
p6
g2
Ntp7
Rp8
(lp9
g0
(cstd_msgs.msg._Header
Header
p10
g2
Ntp11
Rp12
(lp13
I0
ag0
(cgenpy.rostime
Time
p14
g2
Ntp15
Rp16
(lp17
I0
aI0
abaS'/base'
p18
aba(lp19
S'right_s0'
p20
aS'right_s1'
p21
aS'right_e0'
p22
aS'right_e1'
p23
aS'right_w0'
p24
aS'right_w1'
p25
aS'right_w2'
p26
aa(lp27
g0
(ctrajectory_msgs.msg._JointTrajectoryPoint
JointTrajectoryPoint
p28
g2
Ntp29
Rp30
(lp31
(lp32
F0.06826214498291017
aF-0.9844321695007325
aF1.1320778201660158
aF1.9378012280822756
aF-0.6879903825805664
aF0.9809807127319337
aF0.5004612314758301
aa(lp33
a(lp34
ag0
(cgenpy.rostime
Duration
p35
g2
Ntp36
Rp37
(lp38
I0
aI0
ababag0
(g28
g2
Ntp39
Rp40
(lp41
(lp42
F0.07180640149347922
aF-0.9834786407950535
aF1.1234033825367626
aF1.9344532499903389
aF-0.6849185359991524
aF0.9826718064252437
aF0.510985433023062
aa(lp43
a(lp44
ag0
(g35
g2
Ntp45
Rp46
(lp47
I0
aI152127546
ababag0
(g28
g2
Ntp48
Rp49
(lp50
(lp51
F0.07535065800404829
aF-0.9825251120893745
aF1.1147289449075095
aF1.931105271898402
aF-0.6818466894177384
aF0.9843629001185537
aF0.5215096345702939
aa(lp52
a(lp53
ag0
(g35
g2
Ntp54
Rp55
(lp56
I0
aI235912767
ababag0
(g28
g2
Ntp57
Rp58
(lp59
(lp60
F0.07889491451461736
aF-0.9815715833836955
aF1.1060545072782564
aF1.927757293806465
aF-0.6787748428363245
aF0.9860539938118638
aF0.5320338361175259
aa(lp61
a(lp62
ag0
(g35
g2
Ntp63
Rp64
(lp65
I0
aI320256112
ababag0
(g28
g2
Ntp66
Rp67
(lp68
(lp69
F0.08243917102518641
aF-0.9806180546780164
aF1.0973800696490033
aF1.9244093157145283
aF-0.6757029962549105
aF0.9877450875051738
aF0.5425580376647577
aa(lp70
a(lp71
ag0
(g35
g2
Ntp72
Rp73
(lp74
I0
aI506223203
ababag0
(g28
g2
Ntp75
Rp76
(lp77
(lp78
F0.0989379030068875
aF-0.9743430372546313
aF1.0484859137858198
aF1.9086195485021122
aF-0.653113899429579
aF0.9941023756658061
aF0.5988030294534197
aa(lp79
a(lp80
ag0
(g35
g2
Ntp81
Rp82
(lp83
I0
aI817312669
ababag0
(g28
g2
Ntp84
Rp85
(lp86
(lp87
F0.11543663498858858
aF-0.9680680198312461
aF0.9995917579226362
aF1.8928297812896961
aF-0.6305248026042475
aF1.0004596638264385
aF0.6550480212420815
aa(lp88
a(lp89
ag0
(g35
g2
Ntp90
Rp91
(lp92
I1
aI2042034
ababag0
(g28
g2
Ntp93
Rp94
(lp95
(lp96
F0.13801092123758119
aF-0.9560499049323901
aF0.9167781347968784
aF1.8708428647457551
aF-0.5841228306676769
aF1.0063264273990844
aF0.7455643325797039
aa(lp97
a(lp98
ag0
(g35
g2
Ntp99
Rp100
(lp101
I1
aI308759156
ababag0
(g28
g2
Ntp102
Rp103
(lp104
(lp105
F0.16058520748657376
aF-0.944031790033534
aF0.8339645116711207
aF1.8488559482018139
aF-0.5377208587311064
aF1.0121931909717303
aF0.8360806439173263
aa(lp106
a(lp107
ag0
(g35
g2
Ntp108
Rp109
(lp110
I1
aI615476279
ababag0
(g28
g2
Ntp111
Rp112
(lp113
(lp114
F0.19531060227014935
aF-0.9205274801837361
aF0.6833119540202146
aF1.8144747329948228
aF-0.443693136572058
aF1.0170789053684033
aF0.9951395943528698
aa(lp115
a(lp116
ag0
(g35
g2
Ntp117
Rp118
(lp119
I2
aI173448715
ababag0
(g28
g2
Ntp120
Rp121
(lp122
(lp123
F0.2300359970537249
aF-0.8970231703339382
aF0.5326593963693084
aF1.7800935177878316
aF-0.3496654144130095
aF1.0219646197650762
aF1.1541985447884133
aa(lp124
a(lp125
ag0
(g35
g2
Ntp126
Rp127
(lp128
I2
aI731421151
ababag0
(g28
g2
Ntp129
Rp130
(lp131
(lp132
F0.2627030416297348
aF-0.8709528299286616
aF0.3725793049599121
aF1.7473088429481565
aF-0.24333809725307057
aF1.0232945160936637
aF1.3194701786671224
aa(lp133
a(lp134
ag0
(g35
g2
Ntp135
Rp136
(lp137
I3
aI324310377
ababag0
(g28
g2
Ntp138
Rp139
(lp140
(lp141
F0.2953700862057447
aF-0.8448824895233851
aF0.2124992135505158
aF1.7145241681084813
aF-0.1370107800931316
aF1.024624412422251
aF1.4847418125458316
aa(lp142
a(lp143
ag0
(g35
g2
Ntp144
Rp145
(lp146
I3
aI917199605
ababag0
(g28
g2
Ntp147
Rp148
(lp149
(lp150
F0.31176932183204026
aF-0.8251662829580931
aF0.1014029891492878
aF1.697326872666488
aF-0.053710023153889716
aF1.0198237217906407
aF1.5938961742129514
aa(lp151
a(lp152
ag0
(g35
g2
Ntp153
Rp154
(lp155
I4
aI328667102
ababag0
(g28
g2
Ntp156
Rp157
(lp158
(lp159
F0.32816855745833584
aF-0.8054500763928012
aF-0.009693235251940185
aF1.6801295772244949
aF0.029590733785352173
aF1.0150230311590303
aF1.7030505358800712
aa(lp160
a(lp161
ag0
(g35
g2
Ntp162
Rp163
(lp164
I4
aI740134601
ababag0
(g28
g2
Ntp165
Rp166
(lp167
(lp168
F0.3364338886097742
aF-0.7889109367475016
aF-0.09629752614908403
aF1.6707259714813425
aF0.10137821061424554
aF1.0071570470473208
aF1.7841462614413963
aa(lp169
a(lp170
ag0
(g35
g2
Ntp171
Rp172
(lp173
I5
aI60891233
ababag0
(g28
g2
Ntp174
Rp175
(lp176
(lp177
F0.3446992197612126
aF-0.7723717971022019
aF-0.18290181704622788
aF1.6613223657381904
aF0.1731656874431389
aF0.9992910629356113
aF1.8652419870027213
aa(lp178
a(lp179
ag0
(g35
g2
Ntp180
Rp181
(lp182
I5
aI381647866
ababag0
(g28
g2
Ntp183
Rp184
(lp185
(lp186
F0.34443758717423767
aF-0.758300873696853
aF-0.24782914151424398
aF1.659992923849087
aF0.2367765216022027
aF0.9875002334877205
aF1.9203299843082742
aa(lp187
a(lp188
ag0
(g35
g2
Ntp189
Rp190
(lp191
I5
aI622119439
ababag0
(g28
g2
Ntp192
Rp193
(lp194
(lp195
F0.3441759545872627
aF-0.744229950291504
aF-0.3127564659822601
aF1.6586634819599835
aF0.3003873557612665
aF0.9757094040398296
aF1.9754179816138269
aa(lp196
a(lp197
ag0
(g35
g2
Ntp198
Rp199
(lp200
I5
aI862591011
ababag0
(g28
g2
Ntp201
Rp202
(lp203
(lp204
F0.3439143220002877
aF-0.7301590268861551
aF-0.3776837904502762
aF1.65733404007088
aF0.36399818992033034
aF0.9639185745919387
aF2.0305059789193796
aa(lp205
a(lp206
ag0
(g35
g2
Ntp207
Rp208
(lp209
I6
aI103062582
ababag0
(g28
g2
Ntp210
Rp211
(lp212
(lp213
F0.3436526894133128
aF-0.7160881034808061
aF-0.4426111149182923
aF1.6560045981817766
aF0.42760902407939416
aF0.952127745144048
aF2.0855939762249323
aa(lp214
a(lp215
ag0
(g35
g2
Ntp216
Rp217
(lp218
I6
aI343534155
ababag0
(g28
g2
Ntp219
Rp220
(lp221
(lp222
F0.32921271620236503
aF-0.7025124746232473
aF-0.49489316211493795
aF1.6676865923834407
aF0.4955421616693949
aF0.9336770773808618
aF2.1150274826032422
aa(lp223
a(lp224
ag0
(g35
g2
Ntp225
Rp226
(lp227
I6
aI569977946
ababag0
(g28
g2
Ntp228
Rp229
(lp230
(lp231
F0.31477274299141733
aF-0.6889368457656885
aF-0.5471752093115836
aF1.6793685865851051
aF0.5634752992593957
aF0.9152264096176757
aF2.1444609889815522
aa(lp232
a(lp233
ag0
(g35
g2
Ntp234
Rp235
(lp236
I6
aI796421739
ababag0
(g28
g2
Ntp237
Rp238
(lp239
(lp240
F0.3003327697804696
aF-0.6753612169081297
aF-0.5994572565082292
aF1.6910505807867695
aF0.6314084368493964
aF0.8967757418544895
aF2.1738944953598622
aa(lp241
a(lp242
ag0
(g35
g2
Ntp243
Rp244
(lp245
I7
aI22865530
ababag0
(g28
g2
Ntp246
Rp247
(lp248
(lp249
F0.2858927965695218
aF-0.6617855880505709
aF-0.6517393037048748
aF1.7027325749884337
aF0.699341574439397
aF0.8783250740913033
aF2.203328001738172
aa(lp250
a(lp251
ag0
(g35
g2
Ntp252
Rp253
(lp254
I7
aI249309323
ababag0
(g28
g2
Ntp255
Rp256
(lp257
(lp258
F0.27808105223685564
aF-0.6577455246926509
aF-0.6720015679798226
aF1.7094078947464766
aF0.7229581500086675
aF0.8741824669966292
aF2.2098484621498073
aa(lp259
a(lp260
ag0
(g35
g2
Ntp261
Rp262
(lp263
I7
aI328031241
ababag0
(g28
g2
Ntp264
Rp265
(lp266
(lp267
F0.27026930790418946
aF-0.6537054613347311
aF-0.6922638322547703
aF1.7160832145045193
aF0.746574725577938
aF0.870039859901955
aF2.2163689225614425
aa(lp268
a(lp269
ag0
(g35
g2
Ntp270
Rp271
(lp272
I7
aI406753160
ababag0
(g28
g2
Ntp273
Rp274
(lp275
(lp276
F0.2624575635715233
aF-0.6496653979768112
aF-0.712526096529718
aF1.722758534262562
aF0.7701913011472086
aF0.8658972528072808
aF2.2228893829730776
aa(lp277
a(lp278
ag0
(g35
g2
Ntp279
Rp280
(lp281
I7
aI485475079
ababag0
(g28
g2
Ntp282
Rp283
(lp284
(lp285
F0.25464581923885715
aF-0.6456253346188913
aF-0.7327883608046658
aF1.729433854020605
aF0.7938078767164791
aF0.8617546457126065
aF2.229409843384713
aa(lp286
a(lp287
ag0
(g35
g2
Ntp288
Rp289
(lp290
I7
aI564196996
ababag0
(g28
g2
Ntp291
Rp292
(lp293
(lp294
F0.20722383744596615
aF-0.6240555105138936
aF-0.8438597573389216
aF1.7664979084404595
aF0.9074821892946278
aF0.8597507535754353
aF2.219303421515515
aa(lp295
a(lp296
ag0
(g35
g2
Ntp297
Rp298
(lp299
I7
aI975572539
ababag0
(g28
g2
Ntp300
Rp301
(lp302
(lp303
F0.1789357783199041
aF-0.6169323514689955
aF-0.9149954822061889
aF1.79179529636196
aF0.9595512747044511
aF0.8703251268699399
aF2.216632854036881
aa(lp304
a(lp305
ag0
(g35
g2
Ntp306
Rp307
(lp308
I8
aI239038188
ababag0
(g28
g2
Ntp309
Rp310
(lp311
(lp312
F0.14147519125176708
aF-0.6240442547203204
aF-0.9653948707976417
aF1.8300668748621098
aF0.9960961983388812
aF0.8793011277630433
aF2.2331135486288627
aa(lp313
a(lp314
ag0
(g35
g2
Ntp315
Rp316
(lp317
I8
aI425702590
ababag0
(g28
g2
Ntp318
Rp319
(lp320
(lp321
F0.10375164858940374
aF-0.6168505614207969
aF-1.0429303741286338
aF1.8636112151426114
aF1.0635256388796819
aF0.8851499551131888
aF2.2343481170435795
aa(lp322
a(lp323
ag0
(g35
g2
Ntp324
Rp325
(lp326
I8
aI822871121
ababag0
(g28
g2
Ntp327
Rp328
(lp329
(lp330
F0.07777262850062516
aF-0.6236033377871248
aF-1.077018859971544
aF1.8879560953700438
aF1.0656513114487391
aF0.9137527372575762
aF2.2064416291445106
aa(lp331
a(lp332
ag0
(g35
g2
Ntp333
Rp334
(lp335
I9
aI69124772
ababag0
(g28
g2
Ntp336
Rp337
(lp338
(lp339
F0.0517936084118466
aF-0.6303561141534528
aF-1.1111073458144543
aF1.9123009755974762
aF1.0677769840177964
aF0.9423555194019637
aF2.178535141245442
aa(lp340
a(lp341
ag0
(g35
g2
Ntp342
Rp343
(lp344
I9
aI215701341
ababag0
(g28
g2
Ntp345
Rp346
(lp347
(lp348
F0.025814588323068034
aF-0.6371088905197808
aF-1.1451958316573645
aF1.9366458558249087
aF1.0699026565868537
aF0.9709583015463512
aF2.150628653346373
aa(lp349
a(lp350
ag0
(g35
g2
Ntp351
Rp352
(lp353
I9
aI370952539
ababag0
(g28
g2
Ntp354
Rp355
(lp356
(lp357
F-0.00016443176571053478
aF-0.6438616668861089
aF-1.1792843175002747
aF1.9609907360523409
aF1.072028329155911
aF0.9995610836907386
aF2.1227221654473043
aa(lp358
a(lp359
ag0
(g35
g2
Ntp360
Rp361
(lp362
I9
aI737206191
ababaabag0
(cmoveit_msgs.msg._MultiDOFJointTrajectory
MultiDOFJointTrajectory
p363
g2
Ntp364
Rp365
(lp366
g0
(g10
g2
Ntp367
Rp368
(lp369
I0
ag0
(g14
g2
Ntp370
Rp371
(lp372
I0
aI0
abaS''
p373
abag19
a(lp374
abab.