ccopy_reg
_reconstructor
p0
(cmoveit_msgs.msg._RobotTrajectory
RobotTrajectory
p1
c__builtin__
object
p2
Ntp3
Rp4
(lp5
g0
(ctrajectory_msgs.msg._JointTrajectory
JointTrajectory
p6
g2
Ntp7
Rp8
(lp9
g0
(cstd_msgs.msg._Header
Header
p10
g2
Ntp11
Rp12
(lp13
I0
ag0
(cgenpy.rostime
Time
p14
g2
Ntp15
Rp16
(lp17
I0
aI0
abaS'/base'
p18
aba(lp19
S'left_s0'
p20
aS'left_s1'
p21
aS'left_e0'
p22
aS'left_e1'
p23
aS'left_w0'
p24
aS'left_w1'
p25
aS'left_w2'
p26
aa(lp27
g0
(ctrajectory_msgs.msg._JointTrajectoryPoint
JointTrajectoryPoint
p28
g2
Ntp29
Rp30
(lp31
(lp32
F0.4596341982059023
aF0.2309929637296807
aF1.5795396040752845
aF1.6518741965925423
aF1.333077945778542
aF-1.56254497211426
aF-0.361641407763139
aa(lp33
a(lp34
ag0
(cgenpy.rostime
Duration
p35
g2
Ntp36
Rp37
(lp38
I0
aI0
ababag0
(g28
g2
Ntp39
Rp40
(lp41
(lp42
F0.38146227243088127
aF0.13511872406243902
aF1.5788602818939053
aF1.5933192124482005
aF1.355759046095833
aF-1.4759018181288543
aF-0.4372857220400192
aa(lp43
a(lp44
ag0
(g35
g2
Ntp45
Rp46
(lp47
I0
aI615089776
ababag0
(g28
g2
Ntp48
Rp49
(lp50
(lp51
F0.30329034665586024
aF0.039244484395197315
aF1.578180959712526
aF1.5347642283038585
aF1.3784401464131242
aF-1.3892586641434488
aF-0.5129300363168994
aa(lp52
a(lp53
ag0
(g35
g2
Ntp54
Rp55
(lp56
I0
aI970179553
ababag0
(g28
g2
Ntp57
Rp58
(lp59
(lp60
F0.2653024561025427
aF-0.006043472201753268
aF1.5675976675056247
aF1.5090764135683712
aF1.387882183498715
aF-1.3420046426923307
aF-0.5421267375793226
aa(lp61
a(lp62
ag0
(g35
g2
Ntp63
Rp64
(lp65
I1
aI137912725
ababag0
(g28
g2
Ntp66
Rp67
(lp68
(lp69
F0.22731456554922516
aF-0.05133142879870385
aF1.557014375298723
aF1.4833885988328839
aF1.3973242205843057
aF-1.2947506212412125
aF-0.571323438841746
aa(lp70
a(lp71
ag0
(g35
g2
Ntp72
Rp73
(lp74
I1
aI305645898
ababag0
(g28
g2
Ntp75
Rp76
(lp77
(lp78
F0.15133878444259008
aF-0.14190734199260502
aF1.5358477908849202
aF1.432012969361909
aF1.4162082947554873
aF-1.2002425783389763
aF-0.6297168413665926
aa(lp79
a(lp80
ag0
(g35
g2
Ntp81
Rp82
(lp83
I1
aI641112243
ababag0
(g28
g2
Ntp84
Rp85
(lp86
(lp87
F0.07975529267272685
aF-0.22188660223982512
aF1.4737066820062699
aF1.3949960492376687
aF1.42749831663445
aF-1.090004757603079
aF-0.6536084203873722
aa(lp88
a(lp89
ag0
(g35
g2
Ntp90
Rp91
(lp92
I2
aI8571646
ababag0
(g28
g2
Ntp93
Rp94
(lp95
(lp96
F0.00817180090286361
aF-0.3018658624870452
aF1.4115655731276195
aF1.3579791291134284
aF1.4387883385134126
aF-0.9797669368671813
aF-0.6774999994081518
aa(lp97
a(lp98
ag0
(g35
g2
Ntp99
Rp100
(lp101
I2
aI376031048
ababag0
(g28
g2
Ntp102
Rp103
(lp104
(lp105
F-0.056823256861841816
aF-0.36595014331424375
aF1.2879626775516981
aF1.3425002730092896
aF1.4386872819540468
aF-0.8459344493807918
aF-0.6496388431728308
aa(lp106
a(lp107
ag0
(g35
g2
Ntp108
Rp109
(lp110
I2
aI833819549
ababag0
(g28
g2
Ntp111
Rp112
(lp113
(lp114
F-0.08932078574419453
aF-0.397992283727843
aF1.2261612297637374
aF1.3347608449572204
aF1.438636753674364
aF-0.7790182056375969
aF-0.6357082650551703
aa(lp115
a(lp116
ag0
(g35
g2
Ntp117
Rp118
(lp119
I3
aI62713800
ababag0
(g28
g2
Ntp120
Rp121
(lp122
(lp123
F-0.12181831462654724
aF-0.4300344241414423
aF1.1643597819757767
aF1.327021416905151
aF1.438586225394681
aF-0.7121019618944022
aF-0.6217776869375098
aa(lp124
a(lp125
ag0
(g35
g2
Ntp126
Rp127
(lp128
I3
aI291608051
ababag0
(g28
g2
Ntp129
Rp130
(lp131
(lp132
F-0.1499235541721281
aF-0.45147991160836043
aF1.0615838097229686
aF1.3336406981998161
aF1.4309416448227792
aF-0.6294559403175461
aF-0.5733452853157823
aa(lp133
a(lp134
ag0
(g35
g2
Ntp135
Rp136
(lp137
I3
aI672259800
ababag0
(g28
g2
Ntp138
Rp139
(lp140
(lp141
F-0.17802879371770894
aF-0.47292539907527864
aF0.9588078374701604
aF1.3402599794944814
aF1.4232970642508773
aF-0.5468099187406901
aF-0.5249128836940548
aa(lp142
a(lp143
ag0
(g35
g2
Ntp144
Rp145
(lp146
I4
aI52911549
ababag0
(g28
g2
Ntp147
Rp148
(lp149
(lp150
F-0.20613403326328977
aF-0.49437088654219685
aF0.8560318652173522
aF1.3468792607891467
aF1.4156524836789754
aF-0.464163897163834
aF-0.47648048207232724
aa(lp151
a(lp152
ag0
(g35
g2
Ntp153
Rp154
(lp155
I4
aI433563298
ababag0
(g28
g2
Ntp156
Rp157
(lp158
(lp159
F-0.23423927280887064
aF-0.5158163740091151
aF0.7532558929645441
aF1.3534985420838117
aF1.4080079031070736
aF-0.381517875586978
aF-0.4280480804505997
aa(lp160
a(lp161
ag0
(g35
g2
Ntp162
Rp163
(lp164
I4
aI814215049
ababag0
(g28
g2
Ntp165
Rp166
(lp167
(lp168
F-0.2515120027270006
aF-0.5265811480048335
aF0.6710804033077229
aF1.3626976327291667
aF1.400380165295066
aF-0.3211772685911868
aF-0.38425920486809234
aa(lp169
a(lp170
ag0
(g35
g2
Ntp171
Rp172
(lp173
I5
aI118568713
ababag0
(g28
g2
Ntp174
Rp175
(lp176
(lp177
F-0.26878473264513053
aF-0.537345922000552
aF0.5889049136509017
aF1.3718967233745214
aF1.3927524274830585
aF-0.26083666159539565
aF-0.340470329285585
aa(lp178
a(lp179
ag0
(g35
g2
Ntp180
Rp181
(lp182
I5
aI422922378
ababag0
(g28
g2
Ntp183
Rp184
(lp185
(lp186
F-0.2860574625632605
aF-0.5481106959962704
aF0.5067294239940805
aF1.3810958140198764
aF1.385124689671051
aF-0.20049605459960448
aF-0.29668145370307764
aa(lp187
a(lp188
ag0
(g35
g2
Ntp189
Rp190
(lp191
I5
aI727276044
ababag0
(g28
g2
Ntp192
Rp193
(lp194
(lp195
F-0.3033301924813904
aF-0.5588754699919888
aF0.42455393433725924
aF1.3902949046652313
aF1.3774969518590434
aF-0.14015544760381332
aF-0.2528925781205703
aa(lp196
a(lp197
ag0
(g35
g2
Ntp198
Rp199
(lp200
I6
aI31629710
ababag0
(g28
g2
Ntp201
Rp202
(lp203
(lp204
F-0.3206029223995203
aF-0.5696402439877073
aF0.34237844468043804
aF1.399493995310586
aF1.3698692140470359
aF-0.07981484060802216
aF-0.20910370253806296
aa(lp205
a(lp206
ag0
(g35
g2
Ntp207
Rp208
(lp209
I6
aI335983376
ababag0
(g28
g2
Ntp210
Rp211
(lp212
(lp213
F-0.33787565231765027
aF-0.5804050179834257
aF0.2602029550236168
aF1.408693085955941
aF1.3622414762350283
aF-0.019474233612230996
aF-0.1653148269555556
aa(lp214
a(lp215
ag0
(g35
g2
Ntp216
Rp217
(lp218
I6
aI640337041
ababag0
(g28
g2
Ntp219
Rp220
(lp221
(lp222
F-0.351029786267883
aF-0.5813306675602553
aF0.14148049116612732
aF1.429417509019871
aF1.345825096910898
aF0.06005360212663165
aF-0.0889347904118113
aa(lp223
a(lp224
ag0
(g35
g2
Ntp225
Rp226
(lp227
I7
aI80049869
ababag0
(g28
g2
Ntp228
Rp229
(lp230
(lp231
F-0.36418392021811574
aF-0.5822563171370849
aF0.022758027308637824
aF1.450141932083801
aF1.3294087175867677
aF0.1395814378654943
aF-0.012554753868066981
aa(lp232
a(lp233
ag0
(g35
g2
Ntp234
Rp235
(lp236
I7
aI519762698
ababag0
(g28
g2
Ntp237
Rp238
(lp239
(lp240
F-0.37295334285160425
aF-0.5828734168549714
aF-0.05639028192968851
aF1.463958214126421
aF1.3184644647040142
aF0.19259999502473607
aF0.038365270494429234
aa(lp241
a(lp242
ag0
(g35
g2
Ntp243
Rp244
(lp245
I7
aI812904584
ababag0
(g28
g2
Ntp246
Rp247
(lp248
(lp249
F-0.38172276548509276
aF-0.5834905165728578
aF-0.1355385911680148
aF1.4777744961690409
aF1.3075202118212608
aF0.24561855218397782
aF0.08928529485692543
aa(lp250
a(lp251
ag0
(g35
g2
Ntp252
Rp253
(lp254
I8
aI106046471
ababag0
(g28
g2
Ntp255
Rp256
(lp257
(lp258
F-0.3904921881185813
aF-0.5841076162907443
aF-0.21468690040634114
aF1.4915907782116609
aF1.2965759589385073
aF0.2986371093432196
aF0.14020531921942164
aa(lp259
a(lp260
ag0
(g35
g2
Ntp261
Rp262
(lp263
I8
aI399188356
ababag0
(g28
g2
Ntp264
Rp265
(lp266
(lp267
F-0.39946498627371885
aF-0.5827208366325405
aF-0.3106517167175358
aF1.5085987401501724
aF1.2814692194574269
aF0.3648085187878395
aF0.2046828055961241
aa(lp268
a(lp269
ag0
(g35
g2
Ntp270
Rp271
(lp272
I8
aI754613602
ababag0
(g28
g2
Ntp273
Rp274
(lp275
(lp276
F-0.4084377844288565
aF-0.5813340569743366
aF-0.40661653302873035
aF1.5256067020886839
aF1.2663624799763467
aF0.43097992823245945
aF0.26916029197282654
aa(lp277
a(lp278
ag0
(g35
g2
Ntp279
Rp280
(lp281
I9
aI110038848
ababag0
(g28
g2
Ntp282
Rp283
(lp284
(lp285
F-0.4174105825839941
aF-0.5799472773161327
aF-0.5025813493399249
aF1.5426146640271954
aF1.2512557404952664
aF0.49715133767707936
aF0.33363777834952896
aa(lp286
a(lp287
ag0
(g35
g2
Ntp288
Rp289
(lp290
I9
aI465464093
ababag0
(g28
g2
Ntp291
Rp292
(lp293
(lp294
F-0.42638338073913173
aF-0.5785604976579289
aF-0.5985461656511195
aF1.5596226259657069
aF1.2361490010141862
aF0.5633227471216993
aF0.3981152647262314
aa(lp295
a(lp296
ag0
(g35
g2
Ntp297
Rp298
(lp299
I9
aI820889340
ababag0
(g28
g2
Ntp300
Rp301
(lp302
(lp303
F-0.4276036338690264
aF-0.5665372214013873
aF-0.6994452080883291
aF1.5787727053410563
aF1.2111740814242258
aF0.6422398608339682
aF0.4794600368114687
aa(lp304
a(lp305
ag0
(g35
g2
Ntp306
Rp307
(lp308
I10
aI194589496
ababag0
(g28
g2
Ntp309
Rp310
(lp311
(lp312
F-0.42882388699892104
aF-0.5545139451448456
aF-0.8003442505255387
aF1.5979227847164057
aF1.1861991618342653
aF0.7211569745462372
aF0.560804808896706
aa(lp313
a(lp314
ag0
(g35
g2
Ntp315
Rp316
(lp317
I10
aI568289653
ababag0
(g28
g2
Ntp318
Rp319
(lp320
(lp321
F-0.41750013274353026
aF-0.5355533811832036
aF-0.8329703503238636
aF1.6059234807155
aF1.1651531617734547
aF0.760004809375778
aF0.6064419304808177
aa(lp322
a(lp323
ag0
(g35
g2
Ntp324
Rp325
(lp326
I10
aI742826360
ababag0
(g28
g2
Ntp327
Rp328
(lp329
(lp330
F-0.40617637848813953
aF-0.5165928172215615
aF-0.8655964501221884
aF1.6139241767145944
aF1.1441071617126444
aF0.7988526442053188
aF0.6520790520649293
aa(lp331
a(lp332
ag0
(g35
g2
Ntp333
Rp334
(lp335
I11
aI62319143
ababag0
(g28
g2
Ntp336
Rp337
(lp338
(lp339
F-0.3864899526425585
aF-0.4930073947898524
aF-0.8527072548279235
aF1.6144919504628519
aF1.1256804413379338
aF0.8109876264463741
aF0.6739110733149573
aa(lp340
a(lp341
ag0
(g35
g2
Ntp342
Rp343
(lp344
I11
aI339672559
ababag0
(g28
g2
Ntp345
Rp346
(lp347
(lp348
F-0.3668035267969774
aF-0.4694219723581433
aF-0.8398180595336586
aF1.6150597242111093
aF1.1072537209632234
aF0.8231226086874295
aF0.6957430945649852
aa(lp349
a(lp350
ag0
(g35
g2
Ntp351
Rp352
(lp353
I11
aI514263792
ababag0
(g28
g2
Ntp354
Rp355
(lp356
(lp357
F-0.3429357651563012
aF-0.4435241206914008
aF-0.8041712166930989
aF1.6119110368339484
aF1.0901366404315629
aF0.8219011646342421
aF0.7056725656479712
aa(lp358
a(lp359
ag0
(g35
g2
Ntp360
Rp361
(lp362
I11
aI726289136
ababag0
(g28
g2
Ntp363
Rp364
(lp365
(lp366
F-0.31906800351562503
aF-0.4176262690246582
aF-0.7685243738525391
aF1.6087623494567873
aF1.0730195598999024
aF0.8206797205810548
aF0.7156020367309571
aa(lp367
a(lp368
ag0
(g35
g2
Ntp369
Rp370
(lp371
I11
aI998314479
ababaabag0
(cmoveit_msgs.msg._MultiDOFJointTrajectory
MultiDOFJointTrajectory
p372
g2
Ntp373
Rp374
(lp375
g0
(g10
g2
Ntp376
Rp377
(lp378
I0
ag0
(g14
g2
Ntp379
Rp380
(lp381
I0
aI0
abaS''
p382
abag19
a(lp383
abab.