ccopy_reg
_reconstructor
p0
(cmoveit_msgs.msg._RobotTrajectory
RobotTrajectory
p1
c__builtin__
object
p2
Ntp3
Rp4
(lp5
g0
(ctrajectory_msgs.msg._JointTrajectory
JointTrajectory
p6
g2
Ntp7
Rp8
(lp9
g0
(cstd_msgs.msg._Header
Header
p10
g2
Ntp11
Rp12
(lp13
I0
ag0
(cgenpy.rostime
Time
p14
g2
Ntp15
Rp16
(lp17
I0
aI0
abaS'/base'
p18
aba(lp19
S'right_s0'
p20
aS'right_s1'
p21
aS'right_e0'
p22
aS'right_e1'
p23
aS'right_w0'
p24
aS'right_w1'
p25
aS'right_w2'
p26
aa(lp27
g0
(ctrajectory_msgs.msg._JointTrajectoryPoint
JointTrajectoryPoint
p28
g2
Ntp29
Rp30
(lp31
(lp32
F0.10316020786743164
aF-0.9641069240844727
aF1.1527865607788086
aF1.9220779250244142
aF-0.6657476611816406
aF0.998621491772461
aF0.5234709432678223
aa(lp33
a(lp34
ag0
(cgenpy.rostime
Duration
p35
g2
Ntp36
Rp37
(lp38
I0
aI0
ababag0
(g28
g2
Ntp39
Rp40
(lp41
(lp42
F0.10085760503702154
aF-0.9529671114478504
aF1.0428255109066686
aF1.9077866063819242
aF-0.6348824229133713
aF1.0030381579850123
aF0.5024569068681661
aa(lp43
a(lp44
ag0
(g35
g2
Ntp45
Rp46
(lp47
I0
aI467263147
ababag0
(g28
g2
Ntp48
Rp49
(lp50
(lp51
F0.09855500220661145
aF-0.9418272988112282
aF0.9328644610345288
aF1.8934952877394342
aF-0.6040171846451019
aF1.0074548241975634
aF0.48144287046851003
aa(lp52
a(lp53
ag0
(g35
g2
Ntp54
Rp55
(lp56
I0
aI874526295
ababag0
(g28
g2
Ntp57
Rp58
(lp59
(lp60
F0.09678798011988227
aF-0.933286578215698
aF0.8485599062995299
aF1.8825390565801263
aF-0.5803518578312676
aF1.010841156172964
aF0.46533277352237934
aa(lp61
a(lp62
ag0
(g35
g2
Ntp63
Rp64
(lp65
I1
aI186765386
ababag0
(g28
g2
Ntp66
Rp67
(lp68
(lp69
F0.0950209580331531
aF-0.9247458576201679
aF0.7642553515645311
aF1.8715828254208187
aF-0.5566865310174333
aF1.0142274881483648
aF0.4492226765762487
aa(lp70
a(lp71
ag0
(g35
g2
Ntp72
Rp73
(lp74
I1
aI499004478
ababag0
(g28
g2
Ntp75
Rp76
(lp77
(lp78
F0.09432509743378575
aF-0.9214033211068221
aF0.7312637871038141
aF1.8672967692278757
aF-0.5474210271124691
aF1.0155531516494645
aF0.4429204585371689
aa(lp79
a(lp80
ag0
(g35
g2
Ntp81
Rp82
(lp83
I1
aI621195458
ababag0
(g28
g2
Ntp84
Rp85
(lp86
(lp87
F0.0936292368344184
aF-0.9180607845934763
aF0.6982722226430973
aF1.863010713034933
aF-0.5381555232075048
aF1.016878815150564
aF0.43661824049808906
aa(lp88
a(lp89
ag0
(g35
g2
Ntp90
Rp91
(lp92
I1
aI743386437
ababag0
(g28
g2
Ntp93
Rp94
(lp95
(lp96
F0.09147223197104137
aF-0.9112357998586124
aF0.6312944256381323
aF1.8545710193529428
aF-0.5185995855456663
aF1.019649284946322
aF0.42421199247759633
aa(lp97
a(lp98
ag0
(g35
g2
Ntp99
Rp100
(lp101
I1
aI991452352
ababag0
(g28
g2
Ntp102
Rp103
(lp104
(lp105
F0.08931522710766435
aF-0.9044108151237484
aF0.5643166286331674
aF1.8461313256709526
aF-0.4990436478838278
aF1.0224197547420797
aF0.4118057444571036
aa(lp106
a(lp107
ag0
(g35
g2
Ntp108
Rp109
(lp110
I2
aI239518267
ababag0
(g28
g2
Ntp111
Rp112
(lp113
(lp114
F0.08623999966828523
aF-0.8949167824937063
aF0.4711850024492959
aF1.8344227538577278
aF-0.4717753338415992
aF1.0262801301717674
aF0.3945946510119188
aa(lp115
a(lp116
ag0
(g35
g2
Ntp117
Rp118
(lp119
I2
aI584450216
ababag0
(g28
g2
Ntp120
Rp121
(lp122
(lp123
F0.08316477222890611
aF-0.8854227498636642
aF0.37805337626542435
aF1.8227141820445032
aF-0.4445070197993706
aF1.030140505601455
aF0.3773835575667341
aa(lp124
a(lp125
ag0
(g35
g2
Ntp126
Rp127
(lp128
I2
aI929382164
ababag0
(g28
g2
Ntp129
Rp130
(lp131
(lp132
F0.07701431735014787
aF-0.86643468460358
aF0.19179012389768121
aF1.7992970384180538
aF-0.3899703917149133
aF1.0378612564608303
aF0.34296137067636456
aa(lp133
a(lp134
ag0
(g35
g2
Ntp135
Rp136
(lp137
I3
aI619246062
ababag0
(g28
g2
Ntp138
Rp139
(lp140
(lp141
F0.0658901957588468
aF-0.8531330238971512
aF0.06488400425859542
aF1.785779649974347
aF-0.3458675693232821
aF1.0438591753402076
aF0.3231248904965186
aa(lp142
a(lp143
ag0
(g35
g2
Ntp144
Rp145
(lp146
I4
aI89268727
ababag0
(g28
g2
Ntp147
Rp148
(lp149
(lp150
F0.05476607416754574
aF-0.8398313631907224
aF-0.062022115380490364
aF1.77226226153064
aF-0.30176474693165095
aF1.0498570942195848
aF0.3032884103166726
aa(lp151
a(lp152
ag0
(g35
g2
Ntp153
Rp154
(lp155
I4
aI559291392
ababag0
(g28
g2
Ntp156
Rp157
(lp158
(lp159
F0.043641952576244675
aF-0.8265297024842937
aF-0.18892823501957615
aF1.758744873086933
aF-0.2576619245400198
aF1.0558550130989621
aF0.28345193013682657
aa(lp160
a(lp161
ag0
(g35
g2
Ntp162
Rp163
(lp164
I5
aI29314057
ababag0
(g28
g2
Ntp165
Rp166
(lp167
(lp168
F0.03251783098494362
aF-0.8132280417778649
aF-0.31583435465866194
aF1.7452274846432263
aF-0.21355910214838858
aF1.0618529319783396
aF0.2636154499569806
aa(lp169
a(lp170
ag0
(g35
g2
Ntp171
Rp172
(lp173
I5
aI499336722
ababag0
(g28
g2
Ntp174
Rp175
(lp176
(lp177
F0.007292646097489265
aF-0.7983926651812729
aF-0.45064673352678714
aF1.735581187910785
aF-0.15327760826926165
aF1.0696507972252878
aF0.2495361657427505
aa(lp178
a(lp179
ag0
(g35
g2
Ntp180
Rp181
(lp182
I5
aI998641830
ababag0
(g28
g2
Ntp183
Rp184
(lp185
(lp186
F-0.017932538789965088
aF-0.7835572885846811
aF-0.5854591123949123
aF1.7259348911783436
aF-0.09299611439013472
aF1.0774486624722357
aF0.23545688152852043
aa(lp187
a(lp188
ag0
(g35
g2
Ntp189
Rp190
(lp191
I6
aI497946937
ababag0
(g28
g2
Ntp192
Rp193
(lp194
(lp195
F-0.04315772367741944
aF-0.7687219119880891
aF-0.7202714912630375
aF1.7162885944459023
aF-0.03271462051100779
aF1.0852465277191838
aF0.22137759731429035
aa(lp196
a(lp197
ag0
(g35
g2
Ntp198
Rp199
(lp200
I6
aI997252043
ababag0
(g28
g2
Ntp201
Rp202
(lp203
(lp204
F-0.06838290856487379
aF-0.7538865353914972
aF-0.8550838701311627
aF1.7066422977134612
aF0.027566873368119138
aF1.093044392966132
aF0.20729831310006025
aa(lp205
a(lp206
ag0
(g35
g2
Ntp207
Rp208
(lp209
I7
aI496557151
ababag0
(g28
g2
Ntp210
Rp211
(lp212
(lp213
F-0.09859935475655626
aF-0.7416985079629053
aF-0.9608580164289358
aF1.7027383058769083
aF0.08530649973484433
aF1.1002715432169186
aF0.20168871240553116
aa(lp214
a(lp215
ag0
(g35
g2
Ntp216
Rp217
(lp218
I7
aI888313248
ababag0
(g28
g2
Ntp219
Rp220
(lp221
(lp222
F-0.12881580094823872
aF-0.7295104805343133
aF-1.0666321627267088
aF1.6988343140403552
aF0.14304612610156953
aF1.1074986934677051
aF0.19607911171100204
aa(lp223
a(lp224
ag0
(g35
g2
Ntp225
Rp226
(lp227
I8
aI280069345
ababag0
(g28
g2
Ntp228
Rp229
(lp230
(lp231
F-0.1590322471399212
aF-0.7173224531057214
aF-1.1724063090244816
aF1.6949303222038021
aF0.20078575246829472
aF1.1147258437184915
aF0.19046951101647291
aa(lp232
a(lp233
ag0
(g35
g2
Ntp234
Rp235
(lp236
I8
aI671825442
ababag0
(g28
g2
Ntp237
Rp238
(lp239
(lp240
F-0.18924869333160366
aF-0.7051344256771294
aF-1.2781804553222547
aF1.6910263303672493
aF0.2585253788350199
aF1.121952993969278
aF0.18485991032194382
aa(lp241
a(lp242
ag0
(g35
g2
Ntp243
Rp244
(lp245
I9
aI63581540
ababag0
(g28
g2
Ntp246
Rp247
(lp248
(lp249
F-0.24144450433957448
aF-0.6944151992722718
aF-1.357763299178313
aF1.6984453828551653
aF0.33147981854387193
aF1.1305245417510634
aF0.1960050510804578
aa(lp250
a(lp251
ag0
(g35
g2
Ntp252
Rp253
(lp254
I9
aI358332814
ababag0
(g28
g2
Ntp255
Rp256
(lp257
(lp258
F-0.2936403153475453
aF-0.6836959728674141
aF-1.4373461430343712
aF1.7058644353430816
aF0.40443425825272394
aF1.1390960895328488
aF0.20715019183897176
aa(lp259
a(lp260
ag0
(g35
g2
Ntp261
Rp262
(lp263
I9
aI753084087
ababag0
(g28
g2
Ntp264
Rp265
(lp266
(lp267
F-0.3872118310164649
aF-0.6790958451879849
aF-1.43415217960146
aF1.7391955610513632
aF0.4973369918235506
aF1.148928561577268
aF0.2565980415311924
aa(lp268
a(lp269
ag0
(g35
g2
Ntp270
Rp271
(lp272
I10
aI199645257
ababag0
(g28
g2
Ntp273
Rp274
(lp275
(lp276
F-0.48078334668538447
aF-0.6744957175085559
aF-1.430958216168549
aF1.7725266867596445
aF0.5902397253943773
aF1.158761033621687
aF0.3060458912234131
aa(lp277
a(lp278
ag0
(g35
g2
Ntp279
Rp280
(lp281
I10
aI546206425
ababag0
(g28
g2
Ntp282
Rp283
(lp284
(lp285
F-0.5730633498684901
aF-0.6714863381681067
aF-1.4125671515328677
aF1.8074908047536393
aF0.6779017925540645
aF1.167879570266424
aF0.357890353929444
aa(lp286
a(lp287
ag0
(g35
g2
Ntp288
Rp289
(lp290
I10
aI887984215
ababag0
(g28
g2
Ntp291
Rp292
(lp293
(lp294
F-0.6653433530515958
aF-0.6684769588276573
aF-1.3941760868971866
aF1.8424549227476343
aF0.7655638597137517
aF1.1769981069111612
aF0.4097348166354749
aa(lp295
a(lp296
ag0
(g35
g2
Ntp297
Rp298
(lp299
I11
aI229762004
ababag0
(g28
g2
Ntp300
Rp301
(lp302
(lp303
F-0.7576233562347013
aF-0.665467579487208
aF-1.3757850222615056
aF1.8774190407416291
aF0.8532259268734389
aF1.1861166435558985
aF0.4615792793415058
aa(lp304
a(lp305
ag0
(g35
g2
Ntp306
Rp307
(lp308
I11
aI571539794
ababag0
(g28
g2
Ntp309
Rp310
(lp311
(lp312
F-0.8499033594178069
aF-0.6624582001467587
aF-1.3573939576258245
aF1.912383158735624
aF0.9408879940331261
aF1.1952351802006356
aF0.5134237420475367
aa(lp313
a(lp314
ag0
(g35
g2
Ntp315
Rp316
(lp317
I11
aI913317583
ababag0
(g28
g2
Ntp318
Rp319
(lp320
(lp321
F-0.9392915182971651
aF-0.6601610349717016
aF-1.333412847517378
aF1.9470983980217336
aF1.0242014230446588
aF1.2038340212456669
aF0.5648892854929756
aa(lp322
a(lp323
ag0
(g35
g2
Ntp324
Rp325
(lp326
I12
aI244384839
ababag0
(g28
g2
Ntp327
Rp328
(lp329
(lp330
F-1.0286796771765232
aF-0.6578638697966446
aF-1.3094317374089315
aF1.9818136373078432
aF1.1075148520561915
aF1.2124328622906981
aF0.6163548289384144
aa(lp331
a(lp332
ag0
(g35
g2
Ntp333
Rp334
(lp335
I12
aI575452093
ababag0
(g28
g2
Ntp336
Rp337
(lp338
(lp339
F-1.2074559949352397
aF-0.6532695394465304
aF-1.2614695171920385
aF2.0512441158800625
aF1.274141710079257
aF1.2296305443807607
aF0.7192859158292921
aa(lp340
a(lp341
ag0
(g35
g2
Ntp342
Rp343
(lp344
I13
aI237586605
ababag0
(g28
g2
Ntp345
Rp346
(lp347
(lp348
F-1.2836764447816749
aF-0.6529426967594547
aF-1.2247352809225354
aF2.0830819693410323
aF1.3409526147611568
aF1.2363448428269441
aF0.7664602499579605
aa(lp349
a(lp350
ag0
(g35
g2
Ntp351
Rp352
(lp353
I13
aI519884567
ababag0
(g28
g2
Ntp354
Rp355
(lp356
(lp357
F-1.3598968946281103
aF-0.652615854072379
aF-1.1880010446530322
aF2.114919822802002
aF1.4077635194430564
aF1.2430591412731276
aF0.8136345840866288
aa(lp358
a(lp359
ag0
(g35
g2
Ntp360
Rp361
(lp362
I13
aI822182529
ababag0
(g28
g2
Ntp363
Rp364
(lp365
(lp366
F-1.3848394105184048
aF-0.6544227552168225
aF-1.156880800357224
aF2.127961363707348
aF1.4246664474543733
aF1.2445317478973716
aF0.8329305418341924
aa(lp367
a(lp368
ag0
(g35
g2
Ntp369
Rp370
(lp371
I13
aI978649904
ababag0
(g28
g2
Ntp372
Rp373
(lp374
(lp375
F-1.4097819264086993
aF-0.6562296563612658
aF-1.1257605560614157
aF2.141002904612693
aF1.4415693754656904
aF1.2460043545216157
aF0.852226499581756
aa(lp376
a(lp377
ag0
(g35
g2
Ntp378
Rp379
(lp380
I14
aI333910068
ababaabag0
(cmoveit_msgs.msg._MultiDOFJointTrajectory
MultiDOFJointTrajectory
p381
g2
Ntp382
Rp383
(lp384
g0
(g10
g2
Ntp385
Rp386
(lp387
I0
ag0
(g14
g2
Ntp388
Rp389
(lp390
I0
aI0
abaS''
p391
abag19
a(lp392
abab.