ccopy_reg
_reconstructor
p0
(cmoveit_msgs.msg._RobotTrajectory
RobotTrajectory
p1
c__builtin__
object
p2
Ntp3
Rp4
(lp5
g0
(ctrajectory_msgs.msg._JointTrajectory
JointTrajectory
p6
g2
Ntp7
Rp8
(lp9
g0
(cstd_msgs.msg._Header
Header
p10
g2
Ntp11
Rp12
(lp13
I0
ag0
(cgenpy.rostime
Time
p14
g2
Ntp15
Rp16
(lp17
I0
aI0
abaS'/base'
p18
aba(lp19
S'right_s0'
p20
aS'right_s1'
p21
aS'right_e0'
p22
aS'right_e1'
p23
aS'right_w0'
p24
aS'right_w1'
p25
aS'right_w2'
p26
aa(lp27
g0
(ctrajectory_msgs.msg._JointTrajectoryPoint
JointTrajectoryPoint
p28
g2
Ntp29
Rp30
(lp31
(lp32
F0.10162622708129883
aF-0.9641069240844727
aF1.1455001520446777
aF1.9232284106140138
aF-0.6665146515747071
aF0.9970875109863282
aF0.5234709432678223
aa(lp33
a(lp34
ag0
(cgenpy.rostime
Duration
p35
g2
Ntp36
Rp37
(lp38
I0
aI0
ababag0
(g28
g2
Ntp39
Rp40
(lp41
(lp42
F0.1003782009572727
aF-0.9628522126112227
aF1.1331550989186487
aF1.921026652380614
aF-0.6620864998367673
aF0.9958613457306646
aF0.527476464728541
aa(lp43
a(lp44
ag0
(g35
g2
Ntp45
Rp46
(lp47
I0
aI155722418
ababag0
(g28
g2
Ntp48
Rp49
(lp50
(lp51
F0.09913017483324657
aF-0.9615975011379727
aF1.1208100457926196
aF1.9188248941472144
aF-0.6576583480988275
aF0.9946351804750011
aF0.5314819861892597
aa(lp52
a(lp53
ag0
(g35
g2
Ntp54
Rp55
(lp56
I0
aI244925511
ababag0
(g28
g2
Ntp57
Rp58
(lp59
(lp60
F0.09788214870922043
aF-0.9603427896647228
aF1.1084649926665904
aF1.9166231359138144
aF-0.6532301963608877
aF0.9934090152193376
aF0.5354875076499783
aa(lp61
a(lp62
ag0
(g35
g2
Ntp63
Rp64
(lp65
I0
aI315062687
ababag0
(g28
g2
Ntp66
Rp67
(lp68
(lp69
F0.0966341225851943
aF-0.9590880781914728
aF1.0961199395405614
aF1.9144213776804146
aF-0.6488020446229479
aF0.992182849963674
aF0.539493029110697
aa(lp70
a(lp71
ag0
(g35
g2
Ntp72
Rp73
(lp74
I0
aI374284939
ababag0
(g28
g2
Ntp75
Rp76
(lp77
(lp78
F0.09538609646116816
aF-0.9578333667182228
aF1.0837748864145325
aF1.912219619447015
aF-0.644373892885008
aF0.9909566847080105
aF0.5434985505714156
aa(lp79
a(lp80
ag0
(g35
g2
Ntp81
Rp82
(lp83
I0
aI427367248
ababag0
(g28
g2
Ntp84
Rp85
(lp86
(lp87
F0.09413807033714204
aF-0.9565786552449729
aF1.0714298332885033
aF1.910017861213615
aF-0.6399457411470683
aF0.9897305194523469
aF0.5475040720321342
aa(lp88
a(lp89
ag0
(g35
g2
Ntp90
Rp91
(lp92
I0
aI475902517
ababag0
(g28
g2
Ntp93
Rp94
(lp95
(lp96
F0.09289004421311592
aF-0.9553239437717229
aF1.059084780162474
aF1.9078161029802152
aF-0.6355175894091285
aF0.9885043541966834
aF0.5515095934928529
aa(lp97
a(lp98
ag0
(g35
g2
Ntp99
Rp100
(lp101
I0
aI521624936
ababag0
(g28
g2
Ntp102
Rp103
(lp104
(lp105
F0.09164201808908978
aF-0.9540692322984728
aF1.0467397270364451
aF1.9056143447468155
aF-0.6310894376711886
aF0.9872781889410197
aF0.5555151149535715
aa(lp106
a(lp107
ag0
(g35
g2
Ntp108
Rp109
(lp110
I0
aI567347355
ababag0
(g28
g2
Ntp111
Rp112
(lp113
(lp114
F0.08823078099137634
aF-0.9506401810414606
aF1.0130029728551886
aF1.8995972871807443
aF-0.6189873831454562
aF0.9839277036009351
aF0.5664616866505296
aa(lp115
a(lp116
ag0
(g35
g2
Ntp117
Rp118
(lp119
I0
aI692298296
ababag0
(g28
g2
Ntp120
Rp121
(lp122
(lp123
F0.08481954389366289
aF-0.9472111297844485
aF0.9792662186739323
aF1.893580229614673
aF-0.6068853286197237
aF0.9805772182608503
aF0.5774082583474878
aa(lp124
a(lp125
ag0
(g35
g2
Ntp126
Rp127
(lp128
I0
aI817249238
ababag0
(g28
g2
Ntp129
Rp130
(lp131
(lp132
F0.08140830679594944
aF-0.9437820785274365
aF0.9455294644926758
aF1.8875631720486021
aF-0.5947832740939911
aF0.9772267329207656
aF0.5883548300444459
aa(lp133
a(lp134
ag0
(g35
g2
Ntp135
Rp136
(lp137
I0
aI942200179
ababag0
(g28
g2
Ntp138
Rp139
(lp140
(lp141
F0.077997069698236
aF-0.9403530272704242
aF0.9117927103114194
aF1.881546114482531
aF-0.5826812195682587
aF0.9738762475806808
aF0.5993014017414039
aa(lp142
a(lp143
ag0
(g35
g2
Ntp144
Rp145
(lp146
I1
aI67151119
ababag0
(g28
g2
Ntp147
Rp148
(lp149
(lp150
F0.07458583260052255
aF-0.936923976013412
aF0.878055956130163
aF1.8755290569164598
aF-0.5705791650425263
aF0.9705257622405961
aF0.6102479734383619
aa(lp151
a(lp152
ag0
(g35
g2
Ntp153
Rp154
(lp155
I1
aI192102062
ababag0
(g28
g2
Ntp156
Rp157
(lp158
(lp159
F0.07117459550280911
aF-0.9334949247564
aF0.8443192019489065
aF1.8695119993503888
aF-0.5584771105167938
aF0.9671752769005113
aF0.62119454513532
aa(lp160
a(lp161
ag0
(g35
g2
Ntp162
Rp163
(lp164
I1
aI317053003
ababag0
(g28
g2
Ntp165
Rp166
(lp167
(lp168
F0.06776335840509567
aF-0.9300658734993879
aF0.8105824477676502
aF1.8634949417843176
aF-0.5463750559910614
aF0.9638247915604266
aF0.6321411168322781
aa(lp169
a(lp170
ag0
(g35
g2
Ntp171
Rp172
(lp173
I1
aI442003944
ababag0
(g28
g2
Ntp174
Rp175
(lp176
(lp177
F0.06435212130738223
aF-0.9266368222423756
aF0.7768456935863938
aF1.8574778842182464
aF-0.5342730014653289
aF0.9604743062203419
aF0.6430876885292363
aa(lp178
a(lp179
ag0
(g35
g2
Ntp180
Rp181
(lp182
I1
aI566954886
ababag0
(g28
g2
Ntp183
Rp184
(lp185
(lp186
F0.05749112500097217
aF-0.9197401008777997
aF0.70899258287177
aF1.8453760525419323
aF-0.5099325547451932
aF0.9537357268710023
aF0.6651040516531325
aa(lp187
a(lp188
ag0
(g35
g2
Ntp189
Rp190
(lp191
I1
aI818262704
ababag0
(g28
g2
Ntp192
Rp193
(lp194
(lp195
F0.05063012869456211
aF-0.9128433795132238
aF0.6411394721571462
aF1.833274220865618
aF-0.4855921080250574
aF0.9469971475216625
aF0.6871204147770287
aa(lp196
a(lp197
ag0
(g35
g2
Ntp198
Rp199
(lp200
I2
aI69570521
ababag0
(g28
g2
Ntp201
Rp202
(lp203
(lp204
F0.043769132388152054
aF-0.9059466581486479
aF0.5732863614425224
aF1.821172389189304
aF-0.4612516613049217
aF0.9402585681723229
aF0.7091367779009249
aa(lp205
a(lp206
ag0
(g35
g2
Ntp207
Rp208
(lp209
I2
aI320878338
ababag0
(g28
g2
Ntp210
Rp211
(lp212
(lp213
F0.036908136081742
aF-0.899049936784072
aF0.5054332507278987
aF1.8090705575129897
aF-0.436911214584786
aF0.9335199888229833
aF0.7311531410248211
aa(lp214
a(lp215
ag0
(g35
g2
Ntp216
Rp217
(lp218
I2
aI572186155
ababag0
(g28
g2
Ntp219
Rp220
(lp221
(lp222
F0.03004713977533195
aF-0.892153215419496
aF0.43758014001327494
aF1.7969687258366756
aF-0.41257076786465025
aF0.9267814094736436
aF0.7531695041487173
aa(lp223
a(lp224
ag0
(g35
g2
Ntp225
Rp226
(lp227
I2
aI823493973
ababag0
(g28
g2
Ntp228
Rp229
(lp230
(lp231
F0.023186143468921894
aF-0.8852564940549201
aF0.36972702929865114
aF1.7848668941603614
aF-0.3882303211445145
aF0.920042830124304
aF0.7751858672726135
aa(lp232
a(lp233
ag0
(g35
g2
Ntp234
Rp235
(lp236
I3
aI74801791
ababag0
(g28
g2
Ntp237
Rp238
(lp239
(lp240
F0.011682809129820946
aF-0.8753874072568333
aF0.2783017207965196
aF1.7683458359156197
aF-0.352730513072979
aF0.9124336192790734
aF0.8056630959586699
aa(lp241
a(lp242
ag0
(g35
g2
Ntp243
Rp244
(lp245
I3
aI413414045
ababag0
(g28
g2
Ntp246
Rp247
(lp248
(lp249
F0.0001794747907199988
aF-0.8655183204587464
aF0.18687641229438803
aF1.751824777670878
aF-0.3172307050014434
aF0.9048244084338427
aF0.8361403246447262
aa(lp250
a(lp251
ag0
(g35
g2
Ntp252
Rp253
(lp254
I3
aI752026298
ababag0
(g28
g2
Ntp255
Rp256
(lp257
(lp258
F-0.020608535613762732
aF-0.8497045027936376
aF0.04830670821724092
aF1.7264652662892814
aF-0.25941217422710816
aF0.8954739345968303
aF0.8835392844551027
aa(lp259
a(lp260
ag0
(g35
g2
Ntp261
Rp262
(lp263
I4
aI265247425
ababag0
(g28
g2
Ntp264
Rp265
(lp266
(lp267
F-0.04139654601824547
aF-0.8338906851285289
aF-0.09026299585990619
aF1.701105754907685
aF-0.20159364345277292
aF0.8861234607598178
aF0.930938244265479
aa(lp268
a(lp269
ag0
(g35
g2
Ntp270
Rp271
(lp272
I4
aI778468551
ababag0
(g28
g2
Ntp273
Rp274
(lp275
(lp276
F-0.055775820867246965
aF-0.7989802981705135
aF-0.23630113780761386
aF1.6738571048519186
aF-0.13584525045141804
aF0.8658928489545683
aF0.9681973309274448
aa(lp277
a(lp278
ag0
(g35
g2
Ntp279
Rp280
(lp281
I5
aI319350558
ababag0
(g28
g2
Ntp282
Rp283
(lp284
(lp285
F-0.09225724289259271
aF-0.7963183189312896
aF-0.414546799589216
aF1.6415482790076368
aF-0.06363785920130274
aF0.8656812500940112
aF1.0426578950105518
aa(lp286
a(lp287
ag0
(g35
g2
Ntp288
Rp289
(lp290
I5
aI979519675
ababag0
(g28
g2
Ntp291
Rp292
(lp293
(lp294
F-0.11167916415716221
aF-0.7819885950084802
aF-0.5381440895607442
aF1.6188450723555228
aF-0.011013314155715485
aF0.8579139488666898
aF1.08525191579723
aa(lp295
a(lp296
ag0
(g35
g2
Ntp297
Rp298
(lp299
I6
aI437287416
ababag0
(g28
g2
Ntp300
Rp301
(lp302
(lp303
F-0.1311010854217317
aF-0.7676588710856707
aF-0.6617413795322724
aF1.5961418657034088
aF0.04161123088987177
aF0.8501466476393683
aF1.1278459365839084
aa(lp304
a(lp305
ag0
(g35
g2
Ntp306
Rp307
(lp308
I6
aI895055156
ababag0
(g28
g2
Ntp309
Rp310
(lp311
(lp312
F-0.15052300668630123
aF-0.7533291471628613
aF-0.7853386695038006
aF1.5734386590512948
aF0.09423577593545904
aF0.8423793464120468
aF1.1704399573705868
aa(lp313
a(lp314
ag0
(g35
g2
Ntp315
Rp316
(lp317
I7
aI352822898
ababag0
(g28
g2
Ntp318
Rp319
(lp320
(lp321
F-0.16994492795087074
aF-0.7389994232400519
aF-0.9089359594753288
aF1.5507354523991808
aF0.1468603209810463
aF0.8346120451847254
aF1.2130339781572652
aa(lp322
a(lp323
ag0
(g35
g2
Ntp324
Rp325
(lp326
I7
aI810590637
ababag0
(g28
g2
Ntp327
Rp328
(lp329
(lp330
F-0.177349994870232
aF-0.733582617668863
aF-0.9554440256606037
aF1.5421833083428869
aF0.16677817186633792
aF0.8317523521685677
aF1.2290963897722273
aa(lp331
a(lp332
ag0
(g35
g2
Ntp333
Rp334
(lp335
I7
aI982842735
ababag0
(g28
g2
Ntp336
Rp337
(lp338
(lp339
F-0.18475506178959328
aF-0.7281658120976742
aF-1.0019520918458786
aF1.533631164286593
aF0.18669602275162953
aF0.8288926591524101
aF1.2451588013871895
aa(lp340
a(lp341
ag0
(g35
g2
Ntp342
Rp343
(lp344
I8
aI155094831
ababag0
(g28
g2
Ntp345
Rp346
(lp347
(lp348
F-0.19216012870895455
aF-0.7227490065264852
aF-1.0484601580311534
aF1.525079020230299
aF0.20661387363692113
aF0.8260329661362524
aF1.2612212130021516
aa(lp349
a(lp350
ag0
(g35
g2
Ntp351
Rp352
(lp353
I8
aI327346929
ababag0
(g28
g2
Ntp354
Rp355
(lp356
(lp357
F-0.1995651956283158
aF-0.7173322009552964
aF-1.0949682242164283
aF1.516526876174005
aF0.22653172452221276
aF0.8231732731200947
aF1.2772836246171138
aa(lp358
a(lp359
ag0
(g35
g2
Ntp360
Rp361
(lp362
I8
aI499599026
ababag0
(g28
g2
Ntp363
Rp364
(lp365
(lp366
F-0.20096183537507295
aF-0.7163718545599178
aF-1.1029316785085765
aF1.515050263415621
aF0.23009622832735654
aF0.8227673842095189
aF1.2800802316462179
aa(lp367
a(lp368
ag0
(g35
g2
Ntp369
Rp370
(lp371
I8
aI529093300
ababag0
(g28
g2
Ntp372
Rp373
(lp374
(lp375
F-0.20235847512183008
aF-0.7154115081645391
aF-1.1108951328007248
aF1.5135736506572373
aF0.23366073213250035
aF0.8223614952989431
aF1.282876838675322
aa(lp376
a(lp377
ag0
(g35
g2
Ntp378
Rp379
(lp380
I8
aI558587576
ababag0
(g28
g2
Ntp381
Rp382
(lp383
(lp384
F-0.20375511486858722
aF-0.7144511617691605
aF-1.118858587092873
aF1.5120970378988534
aF0.23722523593764416
aF0.8219556063883673
aF1.2856734457044259
aa(lp385
a(lp386
ag0
(g35
g2
Ntp387
Rp388
(lp389
I8
aI588081852
ababag0
(g28
g2
Ntp390
Rp391
(lp392
(lp393
F-0.20515175461534438
aF-0.7134908153737819
aF-1.1268220413850212
aF1.5106204251404696
aF0.24078973974278794
aF0.8215497174777914
aF1.28847005273353
aa(lp394
a(lp395
ag0
(g35
g2
Ntp396
Rp397
(lp398
I8
aI617576126
ababag0
(g28
g2
Ntp399
Rp400
(lp401
(lp402
F-0.21351369293225542
aF-0.7090403577951283
aF-1.1573679096909038
aF1.5046704377757831
aF0.258058571929763
aF0.8219487429117811
aF1.3002778013430212
aa(lp403
a(lp404
ag0
(g35
g2
Ntp405
Rp406
(lp407
I8
aI730708972
ababag0
(g28
g2
Ntp408
Rp409
(lp410
(lp411
F-0.22187563124916648
aF-0.7045899002164746
aF-1.1879137779967865
aF1.498720450411097
aF0.27532740411673806
aF0.822347768345771
aF1.3120855499525126
aa(lp412
a(lp413
ag0
(g35
g2
Ntp414
Rp415
(lp416
I8
aI843841817
ababag0
(g28
g2
Ntp417
Rp418
(lp419
(lp420
F-0.23023756956607752
aF-0.7001394426378209
aF-1.2184596463026691
aF1.4927704630464105
aF0.2925962363037131
aF0.8227467937797608
aF1.323893298562004
aa(lp421
a(lp422
ag0
(g35
g2
Ntp423
Rp424
(lp425
I8
aI956974663
ababag0
(g28
g2
Ntp426
Rp427
(lp428
(lp429
F-0.23859950788298856
aF-0.6956889850591672
aF-1.2490055146085517
aF1.486820475681724
aF0.3098650684906882
aF0.8231458192137506
aF1.3357010471714954
aa(lp430
a(lp431
ag0
(g35
g2
Ntp432
Rp433
(lp434
I9
aI70107508
ababag0
(g28
g2
Ntp435
Rp436
(lp437
(lp438
F-0.24696144619989963
aF-0.6912385274805135
aF-1.2795513829144345
aF1.4808704883170378
aF0.32713390067766324
aF0.8235448446477405
aF1.3475087957809868
aa(lp439
a(lp440
ag0
(g35
g2
Ntp441
Rp442
(lp443
I9
aI183240355
ababag0
(g28
g2
Ntp444
Rp445
(lp446
(lp447
F-0.2553233845168107
aF-0.6867880699018598
aF-1.310097251220317
aF1.4749205009523514
aF0.3444027328646383
aF0.8239438700817303
aF1.3593165443904782
aa(lp448
a(lp449
ag0
(g35
g2
Ntp450
Rp451
(lp452
I9
aI296373199
ababag0
(g28
g2
Ntp453
Rp454
(lp455
(lp456
F-0.2636853228337217
aF-0.6823376123232061
aF-1.3406431195261996
aF1.468970513587665
aF0.36167156505161335
aF0.8243428955157202
aF1.3711242929999696
aa(lp457
a(lp458
ag0
(g35
g2
Ntp459
Rp460
(lp461
I9
aI423854121
ababag0
(g28
g2
Ntp462
Rp463
(lp464
(lp465
F-0.27204726115063277
aF-0.6778871547445524
aF-1.3711889878320824
aF1.4630205262229787
aF0.3789403972385884
aF0.82474192094971
aF1.382932041609461
aa(lp466
a(lp467
ag0
(g35
g2
Ntp468
Rp469
(lp470
I9
aI616986968
ababag0
(g28
g2
Ntp471
Rp472
(lp473
(lp474
F-0.3021567001276565
aF-0.666675919096575
aF-1.4177020642619826
aF1.4523060278163848
aF0.42603322227212126
aF0.8366605242830576
aF1.4071613807611532
aa(lp475
a(lp476
ag0
(g35
g2
Ntp477
Rp478
(lp479
I9
aI858688740
ababag0
(g28
g2
Ntp480
Rp481
(lp482
(lp483
F-0.33226613910468017
aF-0.6554646834485975
aF-1.4642151406918829
aF1.441591529409791
aF0.47312604730565416
aF0.8485791276164053
aF1.431390719912845
aa(lp484
a(lp485
ag0
(g35
g2
Ntp486
Rp487
(lp488
I10
aI30959395
ababag0
(g28
g2
Ntp489
Rp490
(lp491
(lp492
F-0.3623755780817039
aF-0.6442534478006201
aF-1.510728217121783
aF1.430877031003197
aF0.5202188723391871
aF0.860497730949753
aF1.455620059064537
aa(lp493
a(lp494
ag0
(g35
g2
Ntp495
Rp496
(lp497
I10
aI203230048
ababag0
(g28
g2
Ntp498
Rp499
(lp500
(lp501
F-0.3924850170587276
aF-0.6330422121526428
aF-1.5572412935516833
aF1.420162532596603
aF0.5673116973727199
aF0.8724163342831006
aF1.479849398216229
aa(lp502
a(lp503
ag0
(g35
g2
Ntp504
Rp505
(lp506
I10
aI425500702
ababag0
(g28
g2
Ntp507
Rp508
(lp509
(lp510
F-0.4365467057681275
aF-0.6200540134216799
aF-1.580235921615367
aF1.412087943811357
aF0.6255129152443089
aF0.8973006050272212
aF1.502320783391382
aa(lp511
a(lp512
ag0
(g35
g2
Ntp513
Rp514
(lp515
I10
aI669504761
ababag0
(g28
g2
Ntp516
Rp517
(lp518
(lp519
F-0.48060839447752735
aF-0.6070658146907169
aF-1.6032305496790507
aF1.404013355026111
aF0.6837141331158979
aF0.9221848757713417
aF1.5247921685665349
aa(lp520
a(lp521
ag0
(g35
g2
Ntp522
Rp523
(lp524
I10
aI863508820
ababag0
(g28
g2
Ntp525
Rp526
(lp527
(lp528
F-0.5246700831869272
aF-0.5940776159597538
aF-1.6262251777427346
aF1.3959387662408649
aF0.741915350987487
aF0.9470691465154621
aF1.5472635537416877
aa(lp529
a(lp530
ag0
(g35
g2
Ntp531
Rp532
(lp533
I11
aI57512880
ababag0
(g28
g2
Ntp534
Rp535
(lp536
(lp537
F-0.5687317718963271
aF-0.5810894172287908
aF-1.6492198058064182
aF1.3878641774556189
aF0.8001165688590759
aF0.9719534172595827
aF1.5697349389168407
aa(lp538
a(lp539
ag0
(g35
g2
Ntp540
Rp541
(lp542
I11
aI331516940
ababag0
(g28
g2
Ntp543
Rp544
(lp545
(lp546
F-0.6406979600704792
aF-0.5645472923318566
aF-1.6251775371376693
aF1.3850694079130688
aF0.8805345724067772
aF1.022769022825249
aF1.5886904161389155
aa(lp547
a(lp548
ag0
(g35
g2
Ntp549
Rp550
(lp551
I11
aI679576951
ababag0
(g28
g2
Ntp552
Rp553
(lp554
(lp555
F-0.7126641482446314
aF-0.5480051674349226
aF-1.6011352684689202
aF1.3822746383705184
aF0.9609525759544786
aF1.0735846283909152
aF1.60764589336099
aa(lp556
a(lp557
ag0
(g35
g2
Ntp558
Rp559
(lp560
I11
aI947636964
ababag0
(g28
g2
Ntp561
Rp562
(lp563
(lp564
F-0.7846303364187835
aF-0.5314630425379885
aF-1.577092999800171
aF1.3794798688279681
aF1.04137057950218
aF1.1244002339565813
aF1.6266013705830646
aa(lp565
a(lp566
ag0
(g35
g2
Ntp567
Rp568
(lp569
I12
aI215696975
ababag0
(g28
g2
Ntp570
Rp571
(lp572
(lp573
F-0.8565965245929357
aF-0.5149209176410543
aF-1.553050731131422
aF1.376685099285418
aF1.1217885830498813
aF1.1752158395222476
aF1.6455568478051394
aa(lp574
a(lp575
ag0
(g35
g2
Ntp576
Rp577
(lp578
I12
aI483756986
ababag0
(g28
g2
Ntp579
Rp580
(lp581
(lp582
F-0.9214671635073122
aF-0.5011072674252476
aF-1.5169073180763721
aF1.3766076317895823
aF1.1908377901896914
aF1.2234109622352989
aF1.6584740502217037
aa(lp583
a(lp584
ag0
(g35
g2
Ntp585
Rp586
(lp587
I12
aI724018613
ababag0
(g28
g2
Ntp588
Rp589
(lp590
(lp591
F-0.9863378024216888
aF-0.4872936172094409
aF-1.4807639050213224
aF1.3765301642937469
aF1.2598869973295015
aF1.27160608494835
aF1.6713912526382677
aa(lp592
a(lp593
ag0
(g35
g2
Ntp594
Rp595
(lp596
I12
aI964280238
ababag0
(g28
g2
Ntp597
Rp598
(lp599
(lp600
F-1.0512084413360654
aF-0.47347996699363426
aF-1.4446204919662726
aF1.3764526967979112
aF1.3289362044693116
aF1.319801207661401
aF1.6843084550548317
aa(lp601
a(lp602
ag0
(g35
g2
Ntp603
Rp604
(lp605
I13
aI204541863
ababag0
(g28
g2
Ntp606
Rp607
(lp608
(lp609
F-1.116079080250442
aF-0.45966631677782754
aF-1.4084770789112229
aF1.3763752293020755
aF1.3979854116091217
aF1.367996330374452
aF1.697225657471396
aa(lp610
a(lp611
ag0
(g35
g2
Ntp612
Rp613
(lp614
I13
aI444803489
ababag0
(g28
g2
Ntp615
Rp616
(lp617
(lp618
F-1.1388541211805152
aF-0.45486354209024693
aF-1.3951682738160045
aF1.376452546656973
aF1.4220802402570372
aF1.3850191525607272
aF1.7015822182300173
aa(lp619
a(lp620
ag0
(g35
g2
Ntp621
Rp622
(lp623
I13
aI529155492
ababag0
(g28
g2
Ntp624
Rp625
(lp626
(lp627
F-1.1616291621105883
aF-0.4500607674026663
aF-1.3818594687207861
aF1.3765298640118708
aF1.4461750689049526
aF1.4020419747470023
aF1.7059387789886387
aa(lp628
a(lp629
ag0
(g35
g2
Ntp630
Rp631
(lp632
I13
aI627085550
ababag0
(g28
g2
Ntp633
Rp634
(lp635
(lp636
F-1.1844042030406614
aF-0.4452579927150857
aF-1.3685506636255678
aF1.3766071813667686
aF1.470269897552868
aF1.4190647969332775
aF1.71029533974726
aa(lp637
a(lp638
ag0
(g35
g2
Ntp639
Rp640
(lp641
I13
aI751507350
ababag0
(g28
g2
Ntp642
Rp643
(lp644
(lp645
F-1.2071792439707347
aF-0.44045521802750515
aF-1.3552418585303496
aF1.3766844987216662
aF1.4943647262007835
aF1.4360876191195526
aF1.7146519005058813
aa(lp646
a(lp647
ag0
(g35
g2
Ntp648
Rp649
(lp650
I13
aI985859353
ababag0
(g28
g2
Ntp651
Rp652
(lp653
(lp654
F-1.2089064859086562
aF-0.44015788110403764
aF-1.3533503574150472
aF1.3768392085019305
aF1.4959823656027516
aF1.4375242910424397
aF1.7147281404355312
aa(lp655
a(lp656
ag0
(g35
g2
Ntp657
Rp658
(lp659
I14
aI122864913
ababag0
(g28
g2
Ntp660
Rp661
(lp662
(lp663
F-1.2106337278465777
aF-0.4398605441805701
aF-1.3514588562997445
aF1.3769939182821949
aF1.4976000050047196
aF1.4389609629653268
aF1.7148043803651811
aa(lp664
a(lp665
ag0
(g35
g2
Ntp666
Rp667
(lp668
I14
aI159331754
ababag0
(g28
g2
Ntp669
Rp670
(lp671
(lp672
F-1.2123609697844993
aF-0.4395632072571025
aF-1.3495673551844418
aF1.3771486280624594
aF1.4992176444066878
aF1.440397634888214
aF1.714880620294831
aa(lp673
a(lp674
ag0
(g35
g2
Ntp675
Rp676
(lp677
I14
aI189279449
ababag0
(g28
g2
Ntp678
Rp679
(lp680
(lp681
F-1.2140882117224205
aF-0.43926587033363496
aF-1.3476758540691394
aF1.3773033378427237
aF1.5008352838086558
aF1.4418343068111013
aF1.7149568602244811
aa(lp682
a(lp683
ag0
(g35
g2
Ntp684
Rp685
(lp686
I14
aI229595056
ababag0
(g28
g2
Ntp687
Rp688
(lp689
(lp690
F-1.2169728894110179
aF-0.4388495172120911
aF-1.3434589144001534
aF1.3777402212199936
aF1.503285440718638
aF1.444408399091289
aF1.7147793931572521
aa(lp691
a(lp692
ag0
(g35
g2
Ntp693
Rp694
(lp695
I14
aI289303775
ababag0
(g28
g2
Ntp696
Rp697
(lp698
(lp699
F-1.2198575670996155
aF-0.4384331640905473
aF-1.3392419747311672
aF1.3781771045972637
aF1.50573559762862
aF1.4469824913714768
aF1.7146019260900234
aa(lp700
a(lp701
ag0
(g35
g2
Ntp702
Rp703
(lp704
I14
aI333703252
ababag0
(g28
g2
Ntp705
Rp706
(lp707
(lp708
F-1.222742244788213
aF-0.43801681096900347
aF-1.335025035062181
aF1.3786139879745338
aF1.508185754538602
aF1.4495565836516646
aF1.7144244590227946
aa(lp709
a(lp710
ag0
(g35
g2
Ntp711
Rp712
(lp713
I14
aI370821985
ababag0
(g28
g2
Ntp714
Rp715
(lp716
(lp717
F-1.2256269224768106
aF-0.4376004578474596
aF-1.3308080953931951
aF1.379050871351804
aF1.5106359114485841
aF1.4521306759318524
aF1.7142469919555658
aa(lp718
a(lp719
ag0
(g35
g2
Ntp720
Rp721
(lp722
I14
aI404761122
ababag0
(g28
g2
Ntp723
Rp724
(lp725
(lp726
F-1.2285116001654082
aF-0.43718410472591573
aF-1.3265911557242092
aF1.379487754729074
aF1.5130860683585663
aF1.4547047682120402
aF1.714069524888337
aa(lp727
a(lp728
ag0
(g35
g2
Ntp729
Rp730
(lp731
I14
aI443773283
ababag0
(g28
g2
Ntp732
Rp733
(lp734
(lp735
F-1.2313962778540057
aF-0.43676775160437187
aF-1.322374216055223
aF1.379924638106344
aF1.5155362252685483
aF1.457278860492228
aF1.713892057821108
aa(lp736
a(lp737
ag0
(g35
g2
Ntp738
Rp739
(lp740
I14
aI491638102
ababag0
(g28
g2
Ntp741
Rp742
(lp743
(lp744
F-1.2342809555426033
aF-0.436351398482828
aF-1.3181572763862368
aF1.3803615214836138
aF1.5179863821785302
aF1.4598529527724158
aF1.713714590753879
aa(lp745
a(lp746
ag0
(g35
g2
Ntp747
Rp748
(lp749
I14
aI545490089
ababag0
(g28
g2
Ntp750
Rp751
(lp752
(lp753
F-1.2371656332312007
aF-0.4359350453612842
aF-1.3139403367172509
aF1.380798404860884
aF1.5204365390885124
aF1.4624270450526036
aF1.7135371236866503
aa(lp754
a(lp755
ag0
(g35
g2
Ntp756
Rp757
(lp758
I14
aI681024064
ababaabag0
(cmoveit_msgs.msg._MultiDOFJointTrajectory
MultiDOFJointTrajectory
p759
g2
Ntp760
Rp761
(lp762
g0
(g10
g2
Ntp763
Rp764
(lp765
I0
ag0
(g14
g2
Ntp766
Rp767
(lp768
I0
aI0
abaS''
p769
abag19
a(lp770
abab.