ccopy_reg
_reconstructor
p0
(cmoveit_msgs.msg._RobotTrajectory
RobotTrajectory
p1
c__builtin__
object
p2
Ntp3
Rp4
(lp5
g0
(ctrajectory_msgs.msg._JointTrajectory
JointTrajectory
p6
g2
Ntp7
Rp8
(lp9
g0
(cstd_msgs.msg._Header
Header
p10
g2
Ntp11
Rp12
(lp13
I0
ag0
(cgenpy.rostime
Time
p14
g2
Ntp15
Rp16
(lp17
I0
aI0
abaS'/base'
p18
aba(lp19
S'right_s0'
p20
aS'right_s1'
p21
aS'right_e0'
p22
aS'right_e1'
p23
aS'right_w0'
p24
aS'right_w1'
p25
aS'right_w2'
p26
aa(lp27
g0
(ctrajectory_msgs.msg._JointTrajectoryPoint
JointTrajectoryPoint
p28
g2
Ntp29
Rp30
(lp31
(lp32
F0.07401457293090821
aF-0.9568205153503418
aF1.1236409258422853
aF1.942403170440674
aF-0.6952767913146973
aF1.0089758620788576
aF0.5119660873718263
aa(lp33
a(lp34
ag0
(cgenpy.rostime
Duration
p35
g2
Ntp36
Rp37
(lp38
I0
aI0
ababag0
(g28
g2
Ntp39
Rp40
(lp41
(lp42
F0.0664773093600319
aF-0.9667051204971874
aF1.0284161410512558
aF1.9165427354323035
aF-0.6000882429925902
aF1.0192115339915424
aF0.5637425332122636
aa(lp43
a(lp44
ag0
(g35
g2
Ntp45
Rp46
(lp47
I0
aI432684388
ababag0
(g28
g2
Ntp48
Rp49
(lp50
(lp51
F0.05894004578915559
aF-0.976589725644033
aF0.9331913562602264
aF1.8906823004239333
aF-0.5048996946704831
aF1.0294472059042274
aF0.615518979052701
aa(lp52
a(lp53
ag0
(g35
g2
Ntp54
Rp55
(lp56
I0
aI785368776
ababag0
(g28
g2
Ntp57
Rp58
(lp59
(lp60
F0.051402782218279285
aF-0.9864743307908785
aF0.8379665714691971
aF1.8648218654155628
aF-0.409711146348376
aF1.0396828778169123
aF0.6672954248931384
aa(lp61
a(lp62
ag0
(g35
g2
Ntp63
Rp64
(lp65
I1
aI138053164
ababag0
(g28
g2
Ntp66
Rp67
(lp68
(lp69
F0.028790991505650357
aF-1.0161281462314151
aF0.552292217096109
aF1.787240560390452
aF-0.12414550138205471
aF1.070389893554967
aF0.8226247624144507
aa(lp70
a(lp71
ag0
(g35
g2
Ntp72
Rp73
(lp74
I2
aI196106327
ababag0
(g28
g2
Ntp75
Rp76
(lp77
(lp78
F-0.0029710421844052273
aF-1.0368720090057146
aF0.30283577673096485
aF1.7253312858401633
aF0.1202262412460175
aF1.0956899224426104
aF0.9588802872808843
aa(lp79
a(lp80
ag0
(g35
g2
Ntp81
Rp82
(lp83
I3
aI120019070
ababag0
(g28
g2
Ntp84
Rp85
(lp86
(lp87
F-0.03473307587446081
aF-1.0576158717800141
aF0.05337933636582075
aF1.6634220112898748
aF0.3645979838740897
aF1.1209899513302537
aF1.0951358121473178
aa(lp88
a(lp89
ag0
(g35
g2
Ntp90
Rp91
(lp92
I4
aI43931812
ababag0
(g28
g2
Ntp93
Rp94
(lp95
(lp96
F-0.0847955955193697
aF-1.0605398292218395
aF-0.12364127598343541
aF1.6328567976892305
aF0.5265819218256638
aF1.1354760065170746
aF1.1932437117039942
aa(lp97
a(lp98
ag0
(g35
g2
Ntp99
Rp100
(lp101
I4
aI699563709
ababag0
(g28
g2
Ntp102
Rp103
(lp104
(lp105
F-0.1348581151642786
aF-1.063463786663665
aF-0.3006618883326916
aF1.6022915840885865
aF0.6885658597772377
aF1.1499620617038957
aF1.2913516112606707
aa(lp106
a(lp107
ag0
(g35
g2
Ntp108
Rp109
(lp110
I5
aI355195607
ababag0
(g28
g2
Ntp111
Rp112
(lp113
(lp114
F-0.1912233604656897
aF-1.0563666553877078
aF-0.4245356846579416
aF1.5912636567508187
aF0.7930594128369877
aF1.157411376345905
aF1.3611033256991822
aa(lp115
a(lp116
ag0
(g35
g2
Ntp117
Rp118
(lp119
I5
aI813987445
ababag0
(g28
g2
Ntp120
Rp121
(lp122
(lp123
F-0.2475886057671008
aF-1.0492695241117507
aF-0.5484094809831916
aF1.5802357294130511
aF0.8975529658967376
aF1.1648606909879144
aF1.4308550401376938
aa(lp124
a(lp125
ag0
(g35
g2
Ntp126
Rp127
(lp128
I6
aI272779284
ababag0
(g28
g2
Ntp129
Rp130
(lp131
(lp132
F-0.298258816426663
aF-1.0399501207327027
aF-0.6384254732763173
aF1.5769383136513917
aF0.9694535538493376
aF1.1690504982411225
aF1.482042009649633
aa(lp133
a(lp134
ag0
(g35
g2
Ntp135
Rp136
(lp137
I6
aI606171847
ababag0
(g28
g2
Ntp138
Rp139
(lp140
(lp141
F-0.34892902708622525
aF-1.0306307173536546
aF-0.7284414655694428
aF1.5736408978897325
aF1.0413541418019376
aF1.1732403054943308
aF1.5332289791615723
aa(lp142
a(lp143
ag0
(g35
g2
Ntp144
Rp145
(lp146
I6
aI939564412
ababag0
(g28
g2
Ntp147
Rp148
(lp149
(lp150
F-0.38742475888745137
aF-1.0220918985212455
aF-0.7862390656905882
aF1.5744189049793302
aF1.0850448729327309
aF1.17517947501852
aF1.5664022075098067
aa(lp151
a(lp152
ag0
(g35
g2
Ntp153
Rp154
(lp155
I7
aI153629598
ababag0
(g28
g2
Ntp156
Rp157
(lp158
(lp159
F-0.4259204906886775
aF-1.0135530796888366
aF-0.8440366658117335
aF1.5751969120689278
aF1.128735604063524
aF1.1771186445427095
aF1.5995754358580414
aa(lp160
a(lp161
ag0
(g35
g2
Ntp162
Rp163
(lp164
I7
aI367694783
ababag0
(g28
g2
Ntp165
Rp166
(lp167
(lp168
F-0.4457622994150803
aF-1.0087977020527963
aF-0.8712552856210428
aF1.5763952532849306
aF1.1485995866578533
aF1.1778160459976625
aF1.6152859268054396
aa(lp169
a(lp170
ag0
(g35
g2
Ntp171
Rp172
(lp173
I7
aI468504485
ababag0
(g28
g2
Ntp174
Rp175
(lp176
(lp177
F-0.465604108141483
aF-1.0040423244167558
aF-0.8984739054303521
aF1.5775935945009336
aF1.1684635692521828
aF1.1785134474526155
aF1.6309964177528375
aa(lp178
a(lp179
ag0
(g35
g2
Ntp180
Rp181
(lp182
I7
aI569314189
ababag0
(g28
g2
Ntp183
Rp184
(lp185
(lp186
F-0.4761189553304741
aF-1.0011786673788996
aF-0.9104030350837433
aF1.579002102780139
aF1.1764141775782804
aF1.17858996487295
aF1.6379755399998173
aa(lp187
a(lp188
ag0
(g35
g2
Ntp189
Rp190
(lp191
I7
aI615290115
ababag0
(g28
g2
Ntp192
Rp193
(lp194
(lp195
F-0.48663380251946514
aF-0.9983150103410435
aF-0.9223321647371345
aF1.5804106110593446
aF1.1843647859043778
aF1.1786664822932849
aF1.644954662246797
aa(lp196
a(lp197
ag0
(g35
g2
Ntp198
Rp199
(lp200
I7
aI664582531
ababag0
(g28
g2
Ntp201
Rp202
(lp203
(lp204
F-0.5514040160139272
aF-0.9770964973945462
aF-0.9698300460070068
aF1.5971423076346734
aF1.2065113355020878
aF1.1760856851750927
aF1.6739228300026432
aa(lp205
a(lp206
ag0
(g35
g2
Ntp207
Rp208
(lp209
I7
aI914472211
ababag0
(g28
g2
Ntp210
Rp211
(lp212
(lp213
F-0.6161742295083892
aF-0.9558779844480487
aF-1.0173279272768792
aF1.6138740042100022
aF1.228657885099798
aF1.1735048880569008
aF1.7028909977584896
aa(lp214
a(lp215
ag0
(g35
g2
Ntp216
Rp217
(lp218
I8
aI154361891
ababag0
(g28
g2
Ntp219
Rp220
(lp221
(lp222
F-0.6809444430028513
aF-0.9346594715015514
aF-1.0648258085467515
aF1.630605700785331
aF1.250804434697508
aF1.1709240909387089
aF1.7318591655143358
aa(lp223
a(lp224
ag0
(g35
g2
Ntp225
Rp226
(lp227
I8
aI394251570
ababag0
(g28
g2
Ntp228
Rp229
(lp230
(lp231
F-0.7457146564973133
aF-0.913440958555054
aF-1.1123236898166238
aF1.6473373973606598
aF1.272950984295218
aF1.1683432938205167
aF1.760827333270182
aa(lp232
a(lp233
ag0
(g35
g2
Ntp234
Rp235
(lp236
I8
aI634141250
ababag0
(g28
g2
Ntp237
Rp238
(lp239
(lp240
F-0.7835560356020745
aF-0.8992785205964825
aF-1.127253431023029
aF1.661087249950881
aF1.2726529716909472
aF1.1653295799278678
aF1.7708331297711566
aa(lp241
a(lp242
ag0
(g35
g2
Ntp243
Rp244
(lp245
I8
aI774294506
ababag0
(g28
g2
Ntp246
Rp247
(lp248
(lp249
F-0.8213974147068359
aF-0.885116082637911
aF-1.1421831722294344
aF1.6748371025411024
aF1.2723549590866763
aF1.162315866035219
aF1.7808389262721311
aa(lp250
a(lp251
ag0
(g35
g2
Ntp252
Rp253
(lp254
I8
aI914447762
ababag0
(g28
g2
Ntp255
Rp256
(lp257
(lp258
F-0.8592387938115972
aF-0.8709536446793396
aF-1.1571129134358396
aF1.6885869551313237
aF1.2720569464824054
aF1.1593021521425704
aF1.7908447227731057
aa(lp259
a(lp260
ag0
(g35
g2
Ntp261
Rp262
(lp263
I9
aI70697842
ababag0
(g28
g2
Ntp264
Rp265
(lp266
(lp267
F-0.8970801729163584
aF-0.856791206720768
aF-1.1720426546422449
aF1.702336807721545
aF1.2717589338781345
aF1.1562884382499214
aF1.80085051927408
aa(lp268
a(lp269
ag0
(g35
g2
Ntp270
Rp271
(lp272
I9
aI370851098
ababag0
(g28
g2
Ntp273
Rp274
(lp275
(lp276
F-0.9044546998587419
aF-0.8514553734138528
aF-1.1562495609569345
aF1.7108144495345088
aF1.2523906900623345
aF1.1535042910700128
aF1.7927075502004373
aa(lp277
a(lp278
ag0
(g35
g2
Ntp279
Rp280
(lp281
I9
aI575411910
ababag0
(g28
g2
Ntp282
Rp283
(lp284
(lp285
F-0.9118292268011254
aF-0.8461195401069377
aF-1.1404564672716242
aF1.7192920913474725
aF1.2330224462465345
aF1.150720143890104
aF1.7845645811267947
aa(lp286
a(lp287
ag0
(g35
g2
Ntp288
Rp289
(lp290
I9
aI689083178
ababag0
(g28
g2
Ntp291
Rp292
(lp293
(lp294
F-0.9192037537435089
aF-0.8407837068000225
aF-1.1246633735863139
aF1.7277697331604362
aF1.2136542024307344
aF1.1479359967101952
aF1.7764216120531522
aa(lp295
a(lp296
ag0
(g35
g2
Ntp297
Rp298
(lp299
I9
aI803643990
ababag0
(g28
g2
Ntp300
Rp301
(lp302
(lp303
F-0.9265782806858923
aF-0.8354478734931072
aF-1.1088702799010035
aF1.7362473749734
aF1.1942859586149346
aF1.1451518495302866
aF1.7682786429795097
aa(lp304
a(lp305
ag0
(g35
g2
Ntp306
Rp307
(lp308
I10
aI88204803
ababaabag0
(cmoveit_msgs.msg._MultiDOFJointTrajectory
MultiDOFJointTrajectory
p309
g2
Ntp310
Rp311
(lp312
g0
(g10
g2
Ntp313
Rp314
(lp315
I0
ag0
(g14
g2
Ntp316
Rp317
(lp318
I0
aI0
abaS''
p319
abag19
a(lp320
abab.