ccopy_reg
_reconstructor
p0
(cmoveit_msgs.msg._RobotTrajectory
RobotTrajectory
p1
c__builtin__
object
p2
Ntp3
Rp4
(lp5
g0
(ctrajectory_msgs.msg._JointTrajectory
JointTrajectory
p6
g2
Ntp7
Rp8
(lp9
g0
(cstd_msgs.msg._Header
Header
p10
g2
Ntp11
Rp12
(lp13
I0
ag0
(cgenpy.rostime
Time
p14
g2
Ntp15
Rp16
(lp17
I0
aI0
abaS'/base'
p18
aba(lp19
S'right_s0'
p20
aS'right_s1'
p21
aS'right_e0'
p22
aS'right_e1'
p23
aS'right_w0'
p24
aS'right_w1'
p25
aS'right_w2'
p26
aa(lp27
g0
(ctrajectory_msgs.msg._JointTrajectoryPoint
JointTrajectoryPoint
p28
g2
Ntp29
Rp30
(lp31
(lp32
F0.09970875109863282
aF-0.9644904192810059
aF1.1455001520446777
aF1.9251458865966797
aF-0.6661311563781739
aF0.996704015789795
aF0.5234709432678223
aa(lp33
a(lp34
ag0
(cgenpy.rostime
Duration
p35
g2
Ntp36
Rp37
(lp38
I0
aI0
ababag0
(g28
g2
Ntp39
Rp40
(lp41
(lp42
F0.06001775429360407
aF-0.963754400416745
aF1.0685622843583704
aF1.8725991389444567
aF-0.6031173741670055
aF1.0189334906554708
aF0.562028853017585
aa(lp43
a(lp44
ag0
(g35
g2
Ntp45
Rp46
(lp47
I0
aI394955065
ababag0
(g28
g2
Ntp48
Rp49
(lp50
(lp51
F0.020326757488575323
aF-0.9630183815524842
aF0.9916244166720631
aF1.8200523912922337
aF-0.5401035919558372
aF1.0411629655211465
aF0.6005867627673476
aa(lp52
a(lp53
ag0
(g35
g2
Ntp54
Rp55
(lp56
I0
aI679910131
ababag0
(g28
g2
Ntp57
Rp58
(lp59
(lp60
F-0.019364239316453424
aF-0.9622823626882233
aF0.9146865489857559
aF1.7675056436400107
aF-0.4770898097446689
aF1.0633924403868222
aF0.6391446725171103
aa(lp61
a(lp62
ag0
(g35
g2
Ntp63
Rp64
(lp65
I0
aI964865196
ababag0
(g28
g2
Ntp66
Rp67
(lp68
(lp69
F-0.059055236121482176
aF-0.9615463438239624
aF0.8377486812994486
aF1.7149588959877877
aF-0.4140760275335006
aF1.085621915252498
aF0.677702582266873
aa(lp70
a(lp71
ag0
(g35
g2
Ntp72
Rp73
(lp74
I1
aI249820262
ababag0
(g28
g2
Ntp75
Rp76
(lp77
(lp78
F-0.09874623292651093
aF-0.9608103249597015
aF0.7608108136131413
aF1.6624121483355647
aF-0.35106224532233227
aF1.1078513901181737
aF0.7162604920166357
aa(lp79
a(lp80
ag0
(g35
g2
Ntp81
Rp82
(lp83
I1
aI534775326
ababag0
(g28
g2
Ntp84
Rp85
(lp86
(lp87
F-0.13843722973153968
aF-0.9600743060954406
aF0.683872945926834
aF1.6098654006833417
aF-0.28804846311116394
aF1.1300808649838494
aF0.7548184017663984
aa(lp88
a(lp89
ag0
(g35
g2
Ntp90
Rp91
(lp92
I1
aI819730393
ababag0
(g28
g2
Ntp93
Rp94
(lp95
(lp96
F-0.17812822653656843
aF-0.9593382872311798
aF0.6069350782405267
aF1.5573186530311187
aF-0.2250346808999956
aF1.1523103398495254
aF0.7933763115161611
aa(lp97
a(lp98
ag0
(g35
g2
Ntp99
Rp100
(lp101
I2
aI104685458
ababag0
(g28
g2
Ntp102
Rp103
(lp104
(lp105
F-0.21781922334159717
aF-0.9586022683669189
aF0.5299972105542194
aF1.5047719053788957
aF-0.16202089868882727
aF1.174539814715201
aF0.8319342212659238
aa(lp106
a(lp107
ag0
(g35
g2
Ntp108
Rp109
(lp110
I2
aI389640523
ababag0
(g28
g2
Ntp111
Rp112
(lp113
(lp114
F-0.2552516195287169
aF-0.956899607429288
aF0.45791347463377075
aF1.4579671691790441
aF-0.1025372953968687
aF1.1949540251220487
aF0.8676392505708481
aa(lp115
a(lp116
ag0
(g35
g2
Ntp117
Rp118
(lp119
I2
aI656617322
ababag0
(g28
g2
Ntp120
Rp121
(lp122
(lp123
F-0.2926840157158366
aF-0.9551969464916572
aF0.38582973871332205
aF1.4111624329791925
aF-0.04305369210491015
aF1.2153682355288962
aF0.9033442798757725
aa(lp124
a(lp125
ag0
(g35
g2
Ntp126
Rp127
(lp128
I2
aI923594123
ababag0
(g28
g2
Ntp129
Rp130
(lp131
(lp132
F-0.33011641190295626
aF-0.9534942855540264
aF0.3137460027928733
aF1.3643576967793407
aF0.016429911187048413
aF1.2357824459357438
aF0.939049309180697
aa(lp133
a(lp134
ag0
(g35
g2
Ntp135
Rp136
(lp137
I3
aI190570923
ababag0
(g28
g2
Ntp138
Rp139
(lp140
(lp141
F-0.36754880809007595
aF-0.9517916246163955
aF0.2416622668724246
aF1.3175529605794891
aF0.07591351447900697
aF1.2561966563425915
aF0.9747543384856213
aa(lp142
a(lp143
ag0
(g35
g2
Ntp144
Rp145
(lp146
I3
aI457547722
ababag0
(g28
g2
Ntp147
Rp148
(lp149
(lp150
F-0.40498120427719564
aF-0.9500889636787647
aF0.1695785309519759
aF1.2707482243796375
aF0.13539711777096552
aF1.2766108667494391
aF1.0104593677905458
aa(lp151
a(lp152
ag0
(g35
g2
Ntp153
Rp154
(lp155
I3
aI724524521
ababag0
(g28
g2
Ntp156
Rp157
(lp158
(lp159
F-0.4424136004643153
aF-0.9483863027411339
aF0.09749479503152716
aF1.2239434881797857
aF0.1948807210629241
aF1.2970250771562868
aF1.0461643970954702
aa(lp160
a(lp161
ag0
(g35
g2
Ntp162
Rp163
(lp164
I3
aI991501322
ababag0
(g28
g2
Ntp165
Rp166
(lp167
(lp168
F-0.479845996651435
aF-0.9466836418035031
aF0.02541105911107845
aF1.1771387519799341
aF0.25436432435488265
aF1.3174392875631342
aF1.0818694264003945
aa(lp169
a(lp170
ag0
(g35
g2
Ntp171
Rp172
(lp173
I4
aI258478121
ababag0
(g28
g2
Ntp174
Rp175
(lp176
(lp177
F-0.5172783928385547
aF-0.9449809808658722
aF-0.04667267680937026
aF1.1303340157800825
aF0.3138479276468412
aF1.3378534979699819
aF1.1175744557053189
aa(lp178
a(lp179
ag0
(g35
g2
Ntp180
Rp181
(lp182
I4
aI525454920
ababag0
(g28
g2
Ntp183
Rp184
(lp185
(lp186
F-0.5611653194402901
aF-0.9401330540867112
aF-0.129839973327679
aF1.083239731386604
aF0.38374558825155997
aF1.3602317399555701
aF1.1575734802589825
aa(lp187
a(lp188
ag0
(g35
g2
Ntp189
Rp190
(lp191
I4
aI833481945
ababag0
(g28
g2
Ntp192
Rp193
(lp194
(lp195
F-0.6050522460420256
aF-0.9352851273075502
aF-0.21300726984598772
aF1.0361454469931253
aF0.45364324885627866
aF1.3826099819411586
aF1.1975725048126464
aa(lp196
a(lp197
ag0
(g35
g2
Ntp198
Rp199
(lp200
I5
aI141508969
ababag0
(g28
g2
Ntp201
Rp202
(lp203
(lp204
F-0.648939172643761
aF-0.9304372005283892
aF-0.29617456636429645
aF0.9890511625996468
aF0.5235409094609974
aF1.4049882239267468
aF1.23757152936631
aa(lp205
a(lp206
ag0
(g35
g2
Ntp207
Rp208
(lp209
I5
aI449535993
ababag0
(g28
g2
Ntp210
Rp211
(lp212
(lp213
F-0.6928260992454964
aF-0.9255892737492282
aF-0.3793418628826052
aF0.9419568782061682
aF0.5934385700657161
aF1.4273664659123353
aF1.2775705539199738
aa(lp214
a(lp215
ag0
(g35
g2
Ntp216
Rp217
(lp218
I5
aI757563017
ababag0
(g28
g2
Ntp219
Rp220
(lp221
(lp222
F-0.7367130258472319
aF-0.9207413469700672
aF-0.4625091594009139
aF0.8948625938126896
aF0.6633362306704349
aF1.4497447078979235
aF1.3175695784736376
aa(lp223
a(lp224
ag0
(g35
g2
Ntp225
Rp226
(lp227
I6
aI65590042
ababag0
(g28
g2
Ntp228
Rp229
(lp230
(lp231
F-0.7805999524489673
aF-0.9158934201909061
aF-0.5456764559192226
aF0.8477683094192111
aF0.7332338912751536
aF1.472122949883512
aF1.3575686030273013
aa(lp232
a(lp233
ag0
(g35
g2
Ntp234
Rp235
(lp236
I6
aI373617066
ababag0
(g28
g2
Ntp237
Rp238
(lp239
(lp240
F-0.8154524765790665
aF-0.9071789251182653
aF-0.609427225374097
aF0.823642070835218
aF0.7890108362030333
aF1.4872401340337877
aF1.3861561058016119
aa(lp241
a(lp242
ag0
(g35
g2
Ntp243
Rp244
(lp245
I6
aI609731027
ababag0
(g28
g2
Ntp246
Rp247
(lp248
(lp249
F-0.8503050007091657
aF-0.8984644300456245
aF-0.6731779948289714
aF0.7995158322512248
aF0.8447877811309129
aF1.5023573181840633
aF1.4147436085759226
aa(lp250
a(lp251
ag0
(g35
g2
Ntp252
Rp253
(lp254
I6
aI845844987
ababag0
(g28
g2
Ntp255
Rp256
(lp257
(lp258
F-0.8851575248392649
aF-0.8897499349729836
aF-0.7369287642838458
aF0.7753895936672317
aF0.9005647260587926
aF1.517474502334339
aF1.4433311113502332
aa(lp259
a(lp260
ag0
(g35
g2
Ntp261
Rp262
(lp263
I7
aI81958948
ababag0
(g28
g2
Ntp264
Rp265
(lp266
(lp267
F-0.9200100489693641
aF-0.8810354399003427
aF-0.8006795337387201
aF0.7512633550832385
aF0.9563416709866722
aF1.5325916864846147
aF1.4719186141245437
aa(lp268
a(lp269
ag0
(g35
g2
Ntp270
Rp271
(lp272
I7
aI318072909
ababag0
(g28
g2
Ntp273
Rp274
(lp275
(lp276
F-0.9548625730994633
aF-0.872320944827702
aF-0.8644303031935946
aF0.7271371164992454
aF1.0121186159145519
aF1.5477088706348905
aF1.5005061168988543
aa(lp277
a(lp278
ag0
(g35
g2
Ntp279
Rp280
(lp281
I7
aI554186870
ababag0
(g28
g2
Ntp282
Rp283
(lp284
(lp285
F-0.9897150972295625
aF-0.8636064497550611
aF-0.9281810726484689
aF0.7030108779152522
aF1.0678955608424316
aF1.5628260547851662
aF1.5290936196731648
aa(lp286
a(lp287
ag0
(g35
g2
Ntp288
Rp289
(lp290
I7
aI820300832
ababag0
(g28
g2
Ntp291
Rp292
(lp293
(lp294
F-1.0239250784814389
aF-0.8428015705591401
aF-0.9849741727039119
aF0.7127576116582333
aF1.123319546880573
aF1.5709797153399543
aF1.5491518302759244
aa(lp295
a(lp296
ag0
(g35
g2
Ntp297
Rp298
(lp299
I8
aI70645646
ababag0
(g28
g2
Ntp300
Rp301
(lp302
(lp303
F-1.0581350597333152
aF-0.8219966913632191
aF-1.0417672727593548
aF0.7225043454012144
aF1.1787435329187144
aF1.5791333758947426
aF1.569210040878684
aa(lp304
a(lp305
ag0
(g35
g2
Ntp306
Rp307
(lp308
I8
aI280990462
ababag0
(g28
g2
Ntp309
Rp310
(lp311
(lp312
F-1.1265550222370677
aF-0.780386932971377
aF-1.1553534728702408
aF0.7419978128871767
aF1.2895915049949969
aF1.5954406970043191
aF1.6093264620842032
aa(lp313
a(lp314
ag0
(g35
g2
Ntp315
Rp316
(lp317
I8
aI721680091
ababag0
(g28
g2
Ntp318
Rp319
(lp320
(lp321
F-1.1678717773259115
aF-0.7271774696990954
aF-1.2106900917908239
aF0.8303954178015953
aF1.3580773300407625
aF1.5899648446079575
aF1.615208317951663
aa(lp322
a(lp323
ag0
(g35
g2
Ntp324
Rp325
(lp326
I9
aI79078627
ababag0
(g28
g2
Ntp327
Rp328
(lp329
(lp330
F-1.2091885324147555
aF-0.6739680064268139
aF-1.2660267107114067
aF0.9187930227160138
aF1.4265631550865279
aF1.584488992211596
aF1.6210901738191228
aa(lp331
a(lp332
ag0
(g35
g2
Ntp333
Rp334
(lp335
I9
aI406477165
ababag0
(g28
g2
Ntp336
Rp337
(lp338
(lp339
F-1.2324364825603271
aF-0.6130254065675725
aF-1.2825302755051209
aF1.0531267192494032
aF1.4668075487786152
aF1.564491024144609
aF1.6041489861278762
aa(lp340
a(lp341
ag0
(g35
g2
Ntp342
Rp343
(lp344
I9
aI904009374
ababag0
(g28
g2
Ntp345
Rp346
(lp347
(lp348
F-1.244060457633113
aF-0.5825541066379518
aF-1.290782057901978
aF1.1202935675160979
aF1.4869297456246588
aF1.5544920401111155
aF1.5956783922822528
aa(lp349
a(lp350
ag0
(g35
g2
Ntp351
Rp352
(lp353
I10
aI152775479
ababag0
(g28
g2
Ntp354
Rp355
(lp356
(lp357
F-1.2556844327058985
aF-0.5520828067083312
aF-1.299033840298835
aF1.1874604157827926
aF1.5070519424707027
aF1.5444930560776222
aF1.5872077984366295
aa(lp358
a(lp359
ag0
(g35
g2
Ntp360
Rp361
(lp362
I10
aI401541584
ababag0
(g28
g2
Ntp363
Rp364
(lp365
(lp366
F-1.2698979803798336
aF-0.48727363855561
aF-1.296120878029115
aF1.3447621581256675
aF1.533175620485951
aF1.5172340301753227
aF1.5588550889660298
aa(lp367
a(lp368
ag0
(g35
g2
Ntp369
Rp370
(lp371
I10
aI984140630
ababag0
(g28
g2
Ntp372
Rp373
(lp374
(lp375
F-1.284111528053769
aF-0.4224644704028888
aF-1.293207915759395
aF1.5020639004685423
aF1.5592992985011995
aF1.489975004273023
aF1.53050237949543
aa(lp376
a(lp377
ag0
(g35
g2
Ntp378
Rp379
(lp380
I11
aI776739675
ababaabag0
(cmoveit_msgs.msg._MultiDOFJointTrajectory
MultiDOFJointTrajectory
p381
g2
Ntp382
Rp383
(lp384
g0
(g10
g2
Ntp385
Rp386
(lp387
I0
ag0
(g14
g2
Ntp388
Rp389
(lp390
I0
aI0
abaS''
p391
abag19
a(lp392
abab.