ccopy_reg
_reconstructor
p0
(cmoveit_msgs.msg._RobotTrajectory
RobotTrajectory
p1
c__builtin__
object
p2
Ntp3
Rp4
(lp5
g0
(ctrajectory_msgs.msg._JointTrajectory
JointTrajectory
p6
g2
Ntp7
Rp8
(lp9
g0
(cstd_msgs.msg._Header
Header
p10
g2
Ntp11
Rp12
(lp13
I0
ag0
(cgenpy.rostime
Time
p14
g2
Ntp15
Rp16
(lp17
I0
aI0
abaS'/base'
p18
aba(lp19
S'right_s0'
p20
aS'right_s1'
p21
aS'right_e0'
p22
aS'right_e1'
p23
aS'right_w0'
p24
aS'right_w1'
p25
aS'right_w2'
p26
aa(lp27
g0
(ctrajectory_msgs.msg._JointTrajectoryPoint
JointTrajectoryPoint
p28
g2
Ntp29
Rp30
(lp31
(lp32
F0.07209709694824219
aF-0.951451582598877
aF1.1282428682006838
aF1.9412526848510743
aF-0.6979612576904297
aF1.0036069293273926
aF0.5119660873718263
aa(lp33
a(lp34
ag0
(cgenpy.rostime
Duration
p35
g2
Ntp36
Rp37
(lp38
I0
aI0
ababag0
(g28
g2
Ntp39
Rp40
(lp41
(lp42
F0.055516805140180515
aF-0.9526569118370636
aF1.1273419428049252
aF1.9292285407630907
aF-0.6866352896809178
aF1.0037800636079388
aF0.5188700600170553
aa(lp43
a(lp44
ag0
(g35
g2
Ntp45
Rp46
(lp47
I0
aI181408488
ababag0
(g28
g2
Ntp48
Rp49
(lp50
(lp51
F0.03893651333211884
aF-0.9538622410752502
aF1.1264410174091668
aF1.9172043966751071
aF-0.6753093216714059
aF1.0039531978884848
aF0.5257740326622843
aa(lp52
a(lp53
ag0
(g35
g2
Ntp54
Rp55
(lp56
I0
aI283617323
ababag0
(g28
g2
Ntp57
Rp58
(lp59
(lp60
F0.0005792533242364173
aF-0.956517529356477
aF1.1194704075670505
aF1.8932145988232318
aF-0.6538303015709359
aF0.9985339009330769
aF0.5316865445988028
aa(lp61
a(lp62
ag0
(g35
g2
Ntp63
Rp64
(lp65
I0
aI453270231
ababag0
(g28
g2
Ntp66
Rp67
(lp68
(lp69
F-0.037778006683646004
aF-0.9591728176377039
aF1.1124997977249342
aF1.8692248009713568
aF-0.632351281470466
aF0.9931146039776689
aF0.5375990565353214
aa(lp70
a(lp71
ag0
(g35
g2
Ntp72
Rp73
(lp74
I0
aI595334157
ababag0
(g28
g2
Ntp75
Rp76
(lp77
(lp78
F-0.11968920309116991
aF-0.9647280240050112
aF1.0933898189901021
aF1.8213036955916981
aF-0.59056615718808
aF0.9765104445503527
aF0.5415286470544189
aa(lp79
a(lp80
ag0
(g35
g2
Ntp81
Rp82
(lp83
I0
aI898708959
ababag0
(g28
g2
Ntp84
Rp85
(lp86
(lp87
F-0.20160039949869382
aF-0.9702832303723186
aF1.0742798402552702
aF1.7733825902120395
aF-0.5487810329056941
aF0.9599062851230364
aF0.5454582375735166
aa(lp88
a(lp89
ag0
(g35
g2
Ntp90
Rp91
(lp92
I1
aI202083760
ababag0
(g28
g2
Ntp93
Rp94
(lp95
(lp96
F-0.3145289304242453
aF-0.9770738355195094
aF1.0359528646993534
aF1.715784396829374
aF-0.5022362968698376
aF0.9232585871425536
aF0.5282570058414875
aa(lp97
a(lp98
ag0
(g35
g2
Ntp99
Rp100
(lp101
I1
aI620337579
ababag0
(g28
g2
Ntp102
Rp103
(lp104
(lp105
F-0.4274574613497968
aF-0.9838644406667003
aF0.9976258891434364
aF1.6581862034467088
aF-0.4556915608339811
aF0.8866108891620706
aF0.5110557741094583
aa(lp106
a(lp107
ag0
(g35
g2
Ntp108
Rp109
(lp110
I2
aI38591396
ababag0
(g28
g2
Ntp111
Rp112
(lp113
(lp114
F-0.5588667249117618
aF-0.9902259252875778
aF0.9330042888380655
aF1.6051651415858132
aF-0.41993370547309944
aF0.8210609765471628
aF0.4535758192925965
aa(lp115
a(lp116
ag0
(g35
g2
Ntp117
Rp118
(lp119
I2
aI525292373
ababag0
(g28
g2
Ntp120
Rp121
(lp122
(lp123
F-0.6902759884737268
aF-0.9965874099084554
aF0.8683826885326946
aF1.5521440797249175
aF-0.3841758501122178
aF0.755511063932255
aF0.39609586447573464
aa(lp124
a(lp125
ag0
(g35
g2
Ntp126
Rp127
(lp128
I3
aI11993348
ababag0
(g28
g2
Ntp129
Rp130
(lp131
(lp132
F-0.8185903134637665
aF-0.9997612285651172
aF0.7732512228707569
aF1.5218058498433158
aF-0.37815617322309963
aF0.6554052237099808
aF0.2822001516126454
aa(lp133
a(lp134
ag0
(g35
g2
Ntp135
Rp136
(lp137
I3
aI487231589
ababag0
(g28
g2
Ntp138
Rp139
(lp140
(lp141
F-0.9469046384538062
aF-1.002935047221779
aF0.6781197572088191
aF1.491467619961714
aF-0.3721364963339815
aF0.5552993834877067
aF0.16830443874955617
aa(lp142
a(lp143
ag0
(g35
g2
Ntp144
Rp145
(lp146
I3
aI962469831
ababag0
(g28
g2
Ntp147
Rp148
(lp149
(lp150
F-1.0505483536635816
aF-1.0001626544763227
aF0.5482631855832019
aF1.5019179225169306
aF-0.41480629571341554
aF0.41498390268512475
aF-0.018144067121155086
aa(lp151
a(lp152
ag0
(g35
g2
Ntp153
Rp154
(lp155
I4
aI443420095
ababag0
(g28
g2
Ntp156
Rp157
(lp158
(lp159
F-1.1541920688733571
aF-0.9973902617308664
aF0.4184066139575847
aF1.5123682250721469
aF-0.45747609509284953
aF0.27466842188254287
aF-0.20459257299186634
aa(lp160
a(lp161
ag0
(g35
g2
Ntp162
Rp163
(lp164
I4
aI924370361
ababag0
(g28
g2
Ntp165
Rp166
(lp167
(lp168
F-1.2227007276448059
aF-0.9924854005739921
aF0.3020463217401393
aF1.5394022266921614
aF-0.5130484673082808
aF0.14768627056976752
aF-0.3822175153435724
aa(lp169
a(lp170
ag0
(g35
g2
Ntp171
Rp172
(lp173
I5
aI355334405
ababag0
(g28
g2
Ntp174
Rp175
(lp176
(lp177
F-1.2912093864162544
aF-0.9875805394171179
aF0.18568602952269384
aF1.5664362283121758
aF-0.568620839523712
aF0.020704119256992184
aF-0.5598424576952784
aa(lp178
a(lp179
ag0
(g35
g2
Ntp180
Rp181
(lp182
I5
aI786298452
ababag0
(g28
g2
Ntp183
Rp184
(lp185
(lp186
F-1.314118542091314
aF-0.9843569528395257
aF0.13104340208527154
aF1.585849095624968
aF-0.6013088811425856
aF-0.03940173249586234
aF-0.6472674800013519
aa(lp187
a(lp188
ag0
(g35
g2
Ntp189
Rp190
(lp191
I5
aI988678552
ababag0
(g28
g2
Ntp192
Rp193
(lp194
(lp195
F-1.3370276977663735
aF-0.9811333662619337
aF0.07640077464784928
aF1.6052619629377602
aF-0.6339969227614592
aF-0.09950758424871686
aF-0.7346925023074254
aa(lp196
a(lp197
ag0
(g35
g2
Ntp198
Rp199
(lp200
I6
aI231058655
ababag0
(g28
g2
Ntp201
Rp202
(lp203
(lp204
F-1.3371371018932383
aF-0.9787504169739827
aF0.052616979600438575
aF1.6208642630969416
aF-0.6552427990820541
aF-0.126175286221611
aF-0.7770175645906827
aa(lp205
a(lp206
ag0
(g35
g2
Ntp207
Rp208
(lp209
I6
aI359950995
ababag0
(g28
g2
Ntp210
Rp211
(lp212
(lp213
F-1.337246506020103
aF-0.9763674676860317
aF0.028833184553027875
aF1.6364665632561228
aF-0.6764886754026489
aF-0.15284298819450512
aF-0.81934262687394
aa(lp214
a(lp215
ag0
(g35
g2
Ntp216
Rp217
(lp218
I6
aI470596699
ababag0
(g28
g2
Ntp219
Rp220
(lp221
(lp222
F-1.3372721128307492
aF-0.9720917808955413
aF-0.012200661734674332
aF1.6632531659577707
aF-0.7131187475188625
aF-0.19872035767983404
aF-0.8918766770227595
aa(lp223
a(lp224
ag0
(g35
g2
Ntp225
Rp226
(lp227
I6
aI634552531
ababag0
(g28
g2
Ntp228
Rp229
(lp230
(lp231
F-1.337297719641395
aF-0.9678160941050509
aF-0.05323450802237654
aF1.6900397686594189
aF-0.749748819635076
aF-0.24459772716516293
aF-0.9644107271715789
aa(lp232
a(lp233
ag0
(g35
g2
Ntp234
Rp235
(lp236
I6
aI787477097
ababag0
(g28
g2
Ntp237
Rp238
(lp239
(lp240
F-1.337323326452041
aF-0.9635404073145604
aF-0.09426835431007874
aF1.716826371361067
aF-0.7863788917512895
aF-0.29047509665049187
aF-1.0369447773203984
aa(lp241
a(lp242
ag0
(g35
g2
Ntp243
Rp244
(lp245
I6
aI956400955
ababag0
(g28
g2
Ntp246
Rp247
(lp248
(lp249
F-1.3373489332626871
aF-0.95926472052407
aF-0.13530220059778095
aF1.7436129740627149
aF-0.8230089638675031
aF-0.33635246613582076
aF-1.1094788274692178
aa(lp250
a(lp251
ag0
(g35
g2
Ntp252
Rp253
(lp254
I7
aI169325520
ababag0
(g28
g2
Ntp255
Rp256
(lp257
(lp258
F-1.3352341631452485
aF-0.9537551359397954
aF-0.16260360353657122
aF1.7588410211799297
aF-0.8465597856271694
aF-0.3646618818740141
aF-1.149402432009175
aa(lp259
a(lp260
ag0
(g35
g2
Ntp261
Rp262
(lp263
I7
aI330441826
ababag0
(g28
g2
Ntp264
Rp265
(lp266
(lp267
F-1.3331193930278098
aF-0.9482455513555209
aF-0.18990500647536152
aF1.7740690682971443
aF-0.8701106073868358
aF-0.39297129761220745
aF-1.189326036549132
aa(lp268
a(lp269
ag0
(g35
g2
Ntp270
Rp271
(lp272
I7
aI457561508
ababag0
(g28
g2
Ntp273
Rp274
(lp275
(lp276
F-1.331004622910371
aF-0.9427359667712464
aF-0.2172064094141518
aF1.7892971154143589
aF-0.8936614291465022
aF-0.4212807133504008
aF-1.2292496410890892
aa(lp277
a(lp278
ag0
(g35
g2
Ntp279
Rp280
(lp281
I7
aI592501612
ababag0
(g28
g2
Ntp282
Rp283
(lp284
(lp285
F-1.3288898527929323
aF-0.9372263821869719
aF-0.2445078123529421
aF1.8045251625315737
aF-0.9172122509061684
aF-0.44959012908859414
aF-1.2691732456290463
aa(lp286
a(lp287
ag0
(g35
g2
Ntp288
Rp289
(lp290
I7
aI771792804
ababag0
(g28
g2
Ntp291
Rp292
(lp293
(lp294
F-1.326360767555429
aF-0.9294020014611978
aF-0.2680682221522188
aF1.8131140844518452
aF-0.9351783546446676
aF-0.47121457854671034
aF-1.29260762561934
aa(lp295
a(lp296
ag0
(g35
g2
Ntp297
Rp298
(lp299
I7
aI939053581
ababag0
(g28
g2
Ntp300
Rp301
(lp302
(lp303
F-1.3238316823179257
aF-0.9215776207354237
aF-0.2916286319514956
aF1.821703006372117
aF-0.9531444583831667
aF-0.4928390280048266
aF-1.3160420056096336
aa(lp304
a(lp305
ag0
(g35
g2
Ntp306
Rp307
(lp308
I8
aI52078653
ababag0
(g28
g2
Ntp309
Rp310
(lp311
(lp312
F-1.3213025970804224
aF-0.9137532400096496
aF-0.31518904175077234
aF1.8302919282923884
aF-0.9711105621216659
aF-0.5144634774629429
aF-1.339476385599927
aa(lp313
a(lp314
ag0
(g35
g2
Ntp315
Rp316
(lp317
I8
aI142882567
ababag0
(g28
g2
Ntp318
Rp319
(lp320
(lp321
F-1.3187735118429191
aF-0.9059288592838756
aF-0.3387494515500491
aF1.83888085021266
aF-0.9890766658601651
aF-0.5360879269210591
aF-1.3629107655902206
aa(lp322
a(lp323
ag0
(g35
g2
Ntp324
Rp325
(lp326
I8
aI230143345
ababag0
(g28
g2
Ntp327
Rp328
(lp329
(lp330
F-1.31063103760293
aF-0.8806822037810154
aF-0.4141924035004969
aF1.866098532726285
aF-1.0464584739130713
aF-0.6051560941459346
aF-1.4372604412162957
aa(lp331
a(lp332
ag0
(g35
g2
Ntp333
Rp334
(lp335
I8
aI509561685
ababag0
(g28
g2
Ntp336
Rp337
(lp338
(lp339
F-1.3024885633629406
aF-0.855435548278155
aF-0.48963535545094466
aF1.89331621523991
aF-1.1038402819659778
aF-0.67422426137081
aF-1.511610116842371
aa(lp340
a(lp341
ag0
(g35
g2
Ntp342
Rp343
(lp344
I8
aI788980026
ababag0
(g28
g2
Ntp345
Rp346
(lp347
(lp348
F-1.2943460891229515
aF-0.8301888927752948
aF-0.5650783074013924
aF1.920533897753535
aF-1.1612220900188843
aF-0.7432924285956855
aF-1.585959792468446
aa(lp349
a(lp350
ag0
(g35
g2
Ntp351
Rp352
(lp353
I9
aI68398367
ababag0
(g28
g2
Ntp354
Rp355
(lp356
(lp357
F-1.2862036148829623
aF-0.8049422372724346
aF-0.6405212593518402
aF1.94775158026716
aF-1.2186038980717906
aF-0.812360595820561
aF-1.6603094680945212
aa(lp358
a(lp359
ag0
(g35
g2
Ntp360
Rp361
(lp362
I9
aI347816706
ababag0
(g28
g2
Ntp363
Rp364
(lp365
(lp366
F-1.2742190416324273
aF-0.7676584233887117
aF-0.7506480703272111
aF1.9868439927348853
aF-1.3020356778926654
aF-0.9127885435493557
aF-1.7672956500706465
aa(lp367
a(lp368
ag0
(g35
g2
Ntp369
Rp370
(lp371
I9
aI755693785
ababag0
(g28
g2
Ntp372
Rp373
(lp374
(lp375
F-1.2622344683818922
aF-0.7303746095049888
aF-0.8607748813025822
aF2.0259364052026103
aF-1.3854674577135402
aF-1.0132164912781505
aF-1.8742818320467716
aa(lp376
a(lp377
ag0
(g35
g2
Ntp378
Rp379
(lp380
I10
aI163570863
ababag0
(g28
g2
Ntp381
Rp382
(lp383
(lp384
F-1.2524654415206145
aF-0.6998756799556937
aF-0.9497509013481271
aF2.0569634854370875
aF-1.452586838181627
aF-1.0940129139271977
aF-1.9593715369102402
aa(lp385
a(lp386
ag0
(g35
g2
Ntp387
Rp388
(lp389
I10
aI493111678
ababag0
(g28
g2
Ntp390
Rp391
(lp392
(lp393
F-1.2426964146593367
aF-0.6693767504063985
aF-1.038726921393672
aF2.087990565671565
aF-1.519706218649714
aF-1.174809336576245
aF-2.0444612417737087
aa(lp394
a(lp395
ag0
(g35
g2
Ntp396
Rp397
(lp398
I10
aI822652492
ababag0
(g28
g2
Ntp399
Rp400
(lp401
(lp402
F-1.2373584805765736
aF-0.6524475895259587
aF-1.085401359579565
aF2.1028869814395463
aF-1.5542008004122252
aF-1.2163427090657972
aF-2.085757992411864
aa(lp403
a(lp404
ag0
(g35
g2
Ntp405
Rp406
(lp407
I10
aI995520781
ababag0
(g28
g2
Ntp408
Rp409
(lp410
(lp411
F-1.2320205464938105
aF-0.635518428645519
aF-1.132075797765458
aF2.1177833972075275
aF-1.5886953821747363
aF-1.2578760815553494
aF-2.127054743050019
aa(lp412
a(lp413
ag0
(g35
g2
Ntp414
Rp415
(lp416
I11
aI187717191
ababag0
(g28
g2
Ntp417
Rp418
(lp419
(lp420
F-1.228898158800305
aF-0.625374152099507
aF-1.1575994450215252
aF2.1246144807422604
aF-1.6068775645844595
aF-1.2797779289651539
aF-2.1464550165755174
aa(lp421
a(lp422
ag0
(g35
g2
Ntp423
Rp424
(lp425
I11
aI332249218
ababag0
(g28
g2
Ntp426
Rp427
(lp428
(lp429
F-1.2257757711067991
aF-0.615229875553495
aF-1.1831230922775924
aF2.131445564276994
aF-1.6250597469941828
aF-1.3016797763749586
aF-2.1658552901010157
aa(lp430
a(lp431
ag0
(g35
g2
Ntp432
Rp433
(lp434
I11
aI583060455
ababag0
(g28
g2
Ntp435
Rp436
(lp437
(lp438
F-1.2243604436630582
aF-0.61000559539645
aF-1.1900862202004046
aF2.1296656653910513
aF-1.6281331466146765
aF-1.3054092344036832
aF-2.162329334101055
aa(lp439
a(lp440
ag0
(g35
g2
Ntp441
Rp442
(lp443
I11
aI738849818
ababag0
(g28
g2
Ntp444
Rp445
(lp446
(lp447
F-1.2229451162193175
aF-0.604781315239405
aF-1.197049348123217
aF2.1278857665051087
aF-1.6312065462351701
aF-1.3091386924324078
aF-2.1588033781010942
aa(lp448
a(lp449
ag0
(g35
g2
Ntp450
Rp451
(lp452
I11
aI807914594
ababag0
(g28
g2
Ntp453
Rp454
(lp455
(lp456
F-1.2215297887755767
aF-0.59955703508236
aF-1.2040124760460293
aF2.126105867619166
aF-1.6342799458556638
aF-1.3128681504611324
aF-2.1552774221011335
aa(lp457
a(lp458
ag0
(g35
g2
Ntp459
Rp460
(lp461
I11
aI877855244
ababag0
(g28
g2
Ntp462
Rp463
(lp464
(lp465
F-1.2201144613318358
aF-0.594332754925315
aF-1.2109756039688415
aF2.1243259687332237
aF-1.6373533454761577
aF-1.316597608489857
aF-2.1517514661011727
aa(lp466
a(lp467
ag0
(g35
g2
Ntp468
Rp469
(lp470
I12
aI43644606
ababaabag0
(cmoveit_msgs.msg._MultiDOFJointTrajectory
MultiDOFJointTrajectory
p471
g2
Ntp472
Rp473
(lp474
g0
(g10
g2
Ntp475
Rp476
(lp477
I0
ag0
(g14
g2
Ntp478
Rp479
(lp480
I0
aI0
abaS''
p481
abag19
a(lp482
abab.