ccopy_reg
_reconstructor
p0
(cmoveit_msgs.msg._RobotTrajectory
RobotTrajectory
p1
c__builtin__
object
p2
Ntp3
Rp4
(lp5
g0
(ctrajectory_msgs.msg._JointTrajectory
JointTrajectory
p6
g2
Ntp7
Rp8
(lp9
g0
(cstd_msgs.msg._Header
Header
p10
g2
Ntp11
Rp12
(lp13
I0
ag0
(cgenpy.rostime
Time
p14
g2
Ntp15
Rp16
(lp17
I0
aI0
abaS'/base'
p18
aba(lp19
S'right_s0'
p20
aS'right_s1'
p21
aS'right_e0'
p22
aS'right_e1'
p23
aS'right_w0'
p24
aS'right_w1'
p25
aS'right_w2'
p26
aa(lp27
g0
(ctrajectory_msgs.msg._JointTrajectoryPoint
JointTrajectoryPoint
p28
g2
Ntp29
Rp30
(lp31
(lp32
F0.10239321747436524
aF-0.9641069240844727
aF1.1481846184204103
aF1.921694429827881
aF-0.6661311563781739
aF0.9978545013793946
aF0.5219369624816895
aa(lp33
a(lp34
ag0
(cgenpy.rostime
Duration
p35
g2
Ntp36
Rp37
(lp38
I0
aI0
ababag0
(g28
g2
Ntp39
Rp40
(lp41
(lp42
F0.1182254450989327
aF-0.9748300295128208
aF1.0665571931110405
aF1.9205909440533424
aF-0.5705458801379791
aF1.030295683784664
aF0.542270706290478
aa(lp43
a(lp44
ag0
(g35
g2
Ntp45
Rp46
(lp47
I0
aI438617587
ababag0
(g28
g2
Ntp48
Rp49
(lp50
(lp51
F0.13405767272350017
aF-0.9855531349411688
aF0.9849297678016707
aF1.9194874582788035
aF-0.4749606038977844
aF1.0627368661899335
aF0.5626044500992666
aa(lp52
a(lp53
ag0
(g35
g2
Ntp54
Rp55
(lp56
I0
aI757235174
ababag0
(g28
g2
Ntp57
Rp58
(lp59
(lp60
F0.14988990034806762
aF-0.9962762403695169
aF0.903302342492301
aF1.9183839725042648
aF-0.37937532765758963
aF1.095178048595203
aF0.5829381939080551
aa(lp61
a(lp62
ag0
(g35
g2
Ntp63
Rp64
(lp65
I1
aI75852762
ababag0
(g28
g2
Ntp66
Rp67
(lp68
(lp69
F0.16572212797263508
aF-1.006999345797865
aF0.8216749171829312
aF1.9172804867297262
aF-0.2837900514173949
aF1.1276192310004725
aF0.6032719377168436
aa(lp70
a(lp71
ag0
(g35
g2
Ntp72
Rp73
(lp74
I1
aI394470349
ababag0
(g28
g2
Ntp75
Rp76
(lp77
(lp78
F0.18155435559720254
aF-1.017722451226213
aF0.7400474918735614
aF1.9161770009551873
aF-0.18820477517720013
aF1.160060413405742
aF0.6236056815256321
aa(lp79
a(lp80
ag0
(g35
g2
Ntp81
Rp82
(lp83
I1
aI713087937
ababag0
(g28
g2
Ntp84
Rp85
(lp86
(lp87
F0.19738658322177
aF-1.0284455566545612
aF0.6584200665641917
aF1.9150735151806486
aF-0.09261949893700541
aF1.1925015958110112
aF0.6439394253344206
aa(lp88
a(lp89
ag0
(g35
g2
Ntp90
Rp91
(lp92
I2
aI31705523
ababag0
(g28
g2
Ntp93
Rp94
(lp95
(lp96
F0.21321881084633745
aF-1.0391686620829093
aF0.5767926412548219
aF1.91397002940611
aF0.0029657773031893236
aF1.2249427782162807
aF0.6642731691432091
aa(lp97
a(lp98
ag0
(g35
g2
Ntp99
Rp100
(lp101
I2
aI350323111
ababag0
(g28
g2
Ntp102
Rp103
(lp104
(lp105
F0.2290510384709049
aF-1.0498917675112573
aF0.49516521594545215
aF1.912866543631571
aF0.09855105354338406
aF1.2573839606215502
aF0.6846069129519976
aa(lp106
a(lp107
ag0
(g35
g2
Ntp108
Rp109
(lp110
I2
aI668940699
ababag0
(g28
g2
Ntp111
Rp112
(lp113
(lp114
F0.2400989375233822
aF-1.058426890056364
aF0.4191545030989665
aF1.9118411413924834
aF0.18640887986576932
aF1.2865551234591497
aF0.7035790209739885
aa(lp115
a(lp116
ag0
(g35
g2
Ntp117
Rp118
(lp119
I2
aI961800119
ababag0
(g28
g2
Ntp120
Rp121
(lp122
(lp123
F0.2511468365758595
aF-1.0669620126014707
aF0.3431437902524809
aF1.9108157391533958
aF0.2742667061881545
aF1.3157262862967491
aF0.7225511289959794
aa(lp124
a(lp125
ag0
(g35
g2
Ntp126
Rp127
(lp128
I3
aI254659541
ababag0
(g28
g2
Ntp129
Rp130
(lp131
(lp132
F0.26219473562833684
aF-1.0754971351465774
aF0.2671330774059953
aF1.9097903369143079
aF0.3621245325105398
aF1.3448974491343486
aF0.7415232370179704
aa(lp133
a(lp134
ag0
(g35
g2
Ntp135
Rp136
(lp137
I3
aI547518961
ababag0
(g28
g2
Ntp138
Rp139
(lp140
(lp141
F0.2732426346808141
aF-1.084032257691684
aF0.19112236455950965
aF1.9087649346752202
aF0.44998235883292503
aF1.374068611971948
aF0.7604953450399613
aa(lp142
a(lp143
ag0
(g35
g2
Ntp144
Rp145
(lp146
I3
aI840378384
ababag0
(g28
g2
Ntp147
Rp148
(lp149
(lp150
F0.2842905337332914
aF-1.0925673802367908
aF0.11511165171302401
aF1.9077395324361326
aF0.5378401851553103
aF1.4032397748095475
aF0.7794674530619522
aa(lp151
a(lp152
ag0
(g35
g2
Ntp153
Rp154
(lp155
I4
aI133237805
ababag0
(g28
g2
Ntp156
Rp157
(lp158
(lp159
F0.29533843278576866
aF-1.1011025027818975
aF0.039100938866538384
aF1.9067141301970447
aF0.6256980114776955
aF1.432410937647147
aF0.7984395610839432
aa(lp160
a(lp161
ag0
(g35
g2
Ntp162
Rp163
(lp164
I4
aI426097226
ababag0
(g28
g2
Ntp165
Rp166
(lp167
(lp168
F0.306386331838246
aF-1.1096376253270044
aF-0.03690977397994725
aF1.905688727957957
aF0.7135558378000808
aF1.4615821004847465
aF0.8174116691059341
aa(lp169
a(lp170
ag0
(g35
g2
Ntp171
Rp172
(lp173
I4
aI718956646
ababag0
(g28
g2
Ntp174
Rp175
(lp176
(lp177
F0.31743423089072326
aF-1.118172747872111
aF-0.11292048682643288
aF1.9046633257188694
aF0.8014136641224661
aF1.490753263322346
aF0.836383777127925
aa(lp178
a(lp179
ag0
(g35
g2
Ntp180
Rp181
(lp182
I5
aI11816067
ababag0
(g28
g2
Ntp183
Rp184
(lp185
(lp186
F0.3194065534351192
aF-1.1237182902436096
aF-0.199290204054056
aF1.9035043454946219
aF0.8979508994381544
aF1.5209280949253585
aF0.8580488923924526
aa(lp187
a(lp188
ag0
(g35
g2
Ntp189
Rp190
(lp191
I5
aI333606851
ababag0
(g28
g2
Ntp192
Rp193
(lp194
(lp195
F0.3213788759795152
aF-1.1292638326151083
aF-0.2856599212816791
aF1.9023453652703746
aF0.9944881347538428
aF1.5511029265283711
aF0.8797140076569802
aa(lp196
a(lp197
ag0
(g35
g2
Ntp198
Rp199
(lp200
I5
aI655397637
ababag0
(g28
g2
Ntp201
Rp202
(lp203
(lp204
F0.32335119852391114
aF-1.1348093749866068
aF-0.37202963850930226
aF1.901186385046127
aF1.0910253700695312
aF1.5812777581313837
aF0.9013791229215078
aa(lp205
a(lp206
ag0
(g35
g2
Ntp207
Rp208
(lp209
I5
aI977188421
ababag0
(g28
g2
Ntp210
Rp211
(lp212
(lp213
F0.3248304404322081
aF-1.1389685317652307
aF-0.4368069264300196
aF1.9003171498779414
aF1.1634282965562974
aF1.603908881833643
aF0.9176279593699035
aa(lp214
a(lp215
ag0
(g35
g2
Ntp216
Rp217
(lp218
I6
aI218531508
ababag0
(g28
g2
Ntp219
Rp220
(lp221
(lp222
F0.32630968234050506
aF-1.1431276885438548
aF-0.501584214350737
aF1.8994479147097558
aF1.2358312230430637
aF1.6265400055359027
aF0.9338767958182992
aa(lp223
a(lp224
ag0
(g35
g2
Ntp225
Rp226
(lp227
I6
aI459874597
ababag0
(g28
g2
Ntp228
Rp229
(lp230
(lp231
F0.327788924248802
aF-1.147286845322479
aF-0.5663615022714543
aF1.8985786795415702
aF1.30823414952983
aF1.6491711292381621
aF0.9501256322666949
aa(lp232
a(lp233
ag0
(g35
g2
Ntp234
Rp235
(lp236
I6
aI701217685
ababag0
(g28
g2
Ntp237
Rp238
(lp239
(lp240
F0.329268166157099
aF-1.1514460021011028
aF-0.6311387901921717
aF1.8977094443733846
aF1.3806370760165962
aF1.6718022529404215
aF0.9663744687150906
aa(lp241
a(lp242
ag0
(g35
g2
Ntp243
Rp244
(lp245
I6
aI942560774
ababag0
(g28
g2
Ntp246
Rp247
(lp248
(lp249
F0.30352067854115194
aF-1.1466364183589026
aF-0.7269930912563015
aF1.8964394752497196
aF1.4790782294832718
aF1.6974443829389205
aF0.9907023268910963
aa(lp250
a(lp251
ag0
(g35
g2
Ntp252
Rp253
(lp254
I7
aI297576703
ababag0
(g28
g2
Ntp255
Rp256
(lp257
(lp258
F0.2777731909252049
aF-1.1418268346167022
aF-0.8228473923204314
aF1.8951695061260547
aF1.5775193829499474
aF1.7230865129374195
aF1.015030185067102
aa(lp259
a(lp260
ag0
(g35
g2
Ntp261
Rp262
(lp263
I7
aI652592634
ababag0
(g28
g2
Ntp264
Rp265
(lp266
(lp267
F0.2520257033092579
aF-1.1370172508745018
aF-0.9187016933845612
aF1.8938995370023899
aF1.675960536416623
aF1.7487286429359186
aF1.0393580432431078
aa(lp268
a(lp269
ag0
(g35
g2
Ntp270
Rp271
(lp272
I8
aI7608563
ababag0
(g28
g2
Ntp273
Rp274
(lp275
(lp276
F0.2262782156933108
aF-1.1322076671323016
aF-1.014555994448691
aF1.8926295678787248
aF1.7744016898832984
aF1.7743707729344174
aF1.0636859014191136
aa(lp277
a(lp278
ag0
(g35
g2
Ntp279
Rp280
(lp281
I8
aI392624493
ababag0
(g28
g2
Ntp282
Rp283
(lp284
(lp285
F0.16225609950064246
aF-1.1098942203241704
aF-1.0654765958097476
aF1.8919842670386684
aF1.8110232440074978
aF1.7738527463915563
aF1.0771206733007386
aa(lp286
a(lp287
ag0
(g35
g2
Ntp288
Rp289
(lp290
I8
aI669743441
ababag0
(g28
g2
Ntp291
Rp292
(lp293
(lp294
F0.09823398330797409
aF-1.0875807735160392
aF-1.1163971971708044
aF1.8913389661986117
aF1.8476447981316975
aF1.7733347198486955
aF1.0905554451823636
aa(lp295
a(lp296
ag0
(g35
g2
Ntp297
Rp298
(lp299
I8
aI906862391
ababag0
(g28
g2
Ntp300
Rp301
(lp302
(lp303
F0.03421186711530573
aF-1.065267326707908
aF-1.1673177985318612
aF1.890693665358555
aF1.8842663522558971
aF1.7728166933058347
aF1.1039902170639886
aa(lp304
a(lp305
ag0
(g35
g2
Ntp306
Rp307
(lp308
I9
aI143981339
ababag0
(g28
g2
Ntp309
Rp310
(lp311
(lp312
F-0.029810249077362627
aF-1.0429538798997768
aF-1.2182383998929178
aF1.8900483645184987
aF1.9208879063800968
aF1.7722986667629737
aF1.1174249889456134
aa(lp313
a(lp314
ag0
(g35
g2
Ntp315
Rp316
(lp317
I9
aI411100289
ababag0
(g28
g2
Ntp318
Rp319
(lp320
(lp321
F-0.12253833670257197
aF-1.0075125357921975
aF-1.2354587264766697
aF1.8898715648911484
aF1.9111447609974395
aF1.7521605228140928
aF1.1226899461064526
aa(lp322
a(lp323
ag0
(g35
g2
Ntp324
Rp325
(lp326
I9
aI784537651
ababag0
(g28
g2
Ntp327
Rp328
(lp329
(lp330
F-0.2152664243277813
aF-0.9720711916846181
aF-1.2526790530604215
aF1.889694765263798
aF1.901401615614782
aF1.7320223788652118
aF1.127954903267292
aa(lp331
a(lp332
ag0
(g35
g2
Ntp333
Rp334
(lp335
I10
aI127975012
ababag0
(g28
g2
Ntp336
Rp337
(lp338
(lp339
F-0.30799451195299066
aF-0.9366298475770387
aF-1.2698993796441733
aF1.8895179656364478
aF1.8916584702321244
aF1.711884234916331
aF1.1332198604281314
aa(lp340
a(lp341
ag0
(g35
g2
Ntp342
Rp343
(lp344
I10
aI471412373
ababag0
(g28
g2
Ntp345
Rp346
(lp347
(lp348
F-0.4007225995782
aF-0.9011885034694593
aF-1.2871197062279252
aF1.8893411660090973
aF1.881915324849467
aF1.6917460909674502
aF1.1384848175889706
aa(lp349
a(lp350
ag0
(g35
g2
Ntp351
Rp352
(lp353
I10
aI814849734
ababag0
(g28
g2
Ntp354
Rp355
(lp356
(lp357
F-0.51258800149177
aF-0.8569952278289145
aF-1.2818731829601404
aF1.8894767005235513
aF1.8412623797955718
aF1.6585278687478895
aF1.1383032316026194
aa(lp358
a(lp359
ag0
(g35
g2
Ntp360
Rp361
(lp362
I11
aI229166039
ababag0
(g28
g2
Ntp363
Rp364
(lp365
(lp366
F-0.62445340340534
aF-0.8128019521883696
aF-1.2766266596923557
aF1.8896122350380051
aF1.8006094347416763
aF1.6253096465283285
aF1.1381216456162684
aa(lp367
a(lp368
ag0
(g35
g2
Ntp369
Rp370
(lp371
I11
aI643482342
ababag0
(g28
g2
Ntp372
Rp373
(lp374
(lp375
F-0.73631880531891
aF-0.7686086765478247
aF-1.271380136424571
aF1.889747769552459
aF1.7599564896877808
aF1.5920914243087676
aF1.1379400596299172
aa(lp376
a(lp377
ag0
(g35
g2
Ntp378
Rp379
(lp380
I12
aI57798646
ababag0
(g28
g2
Ntp381
Rp382
(lp383
(lp384
F-0.84818420723248
aF-0.7244154009072798
aF-1.2661336131567864
aF1.8898833040669127
aF1.7193035446338856
aF1.5588732020892069
aF1.137758473643566
aa(lp385
a(lp386
ag0
(g35
g2
Ntp387
Rp388
(lp389
I12
aI472114948
ababag0
(g28
g2
Ntp390
Rp391
(lp392
(lp393
F-0.9696182662902304
aF-0.6758461595002523
aF-1.2496536649632333
aF1.8901750056522686
aF1.6631956997443713
aF1.519114940734306
aF1.1348536160836198
aa(lp394
a(lp395
ag0
(g35
g2
Ntp396
Rp397
(lp398
I12
aI921870722
ababag0
(g28
g2
Ntp399
Rp400
(lp401
(lp402
F-1.0910523253479807
aF-0.6272769180932247
aF-1.2331737167696804
aF1.8904667072376244
aF1.6070878548548568
aF1.4793566793794053
aF1.1319487585236734
aa(lp403
a(lp404
ag0
(g35
g2
Ntp405
Rp406
(lp407
I13
aI371626496
ababag0
(g28
g2
Ntp408
Rp409
(lp410
(lp411
F-1.212486384405731
aF-0.5787076766861972
aF-1.2166937685761274
aF1.8907584088229803
aF1.5509800099653424
aF1.4395984180245045
aF1.129043900963727
aa(lp412
a(lp413
ag0
(g35
g2
Ntp414
Rp415
(lp416
I13
aI821382271
ababag0
(g28
g2
Ntp417
Rp418
(lp419
(lp420
F-1.3339204434634813
aF-0.5301384352791695
aF-1.2002138203825745
aF1.8910501104083364
aF1.494872165075828
aF1.3998401566696035
aF1.1261390434037808
aa(lp421
a(lp422
ag0
(g35
g2
Ntp423
Rp424
(lp425
I14
aI521138046
ababaabag0
(cmoveit_msgs.msg._MultiDOFJointTrajectory
MultiDOFJointTrajectory
p426
g2
Ntp427
Rp428
(lp429
g0
(g10
g2
Ntp430
Rp431
(lp432
I0
ag0
(g14
g2
Ntp433
Rp434
(lp435
I0
aI0
abaS''
p436
abag19
a(lp437
abab.