ccopy_reg
_reconstructor
p0
(cmoveit_msgs.msg._RobotTrajectory
RobotTrajectory
p1
c__builtin__
object
p2
Ntp3
Rp4
(lp5
g0
(ctrajectory_msgs.msg._JointTrajectory
JointTrajectory
p6
g2
Ntp7
Rp8
(lp9
g0
(cstd_msgs.msg._Header
Header
p10
g2
Ntp11
Rp12
(lp13
I0
ag0
(cgenpy.rostime
Time
p14
g2
Ntp15
Rp16
(lp17
I0
aI0
abaS'/base'
p18
aba(lp19
S'right_s0'
p20
aS'right_s1'
p21
aS'right_e0'
p22
aS'right_e1'
p23
aS'right_w0'
p24
aS'right_w1'
p25
aS'right_w2'
p26
aa(lp27
g0
(ctrajectory_msgs.msg._JointTrajectoryPoint
JointTrajectoryPoint
p28
g2
Ntp29
Rp30
(lp31
(lp32
F0.10431069345703126
aF-0.9667913904602051
aF1.1524030655822755
aF1.9213109346313477
aF-0.6657476611816406
aF0.9963205205932618
aF0.5230874480712892
aa(lp33
a(lp34
ag0
(cgenpy.rostime
Duration
p35
g2
Ntp36
Rp37
(lp38
I0
aI0
ababag0
(g28
g2
Ntp39
Rp40
(lp41
(lp42
F0.057044480212572565
aF-0.9710355358086403
aF1.0676324866499045
aF1.9360011520525617
aF-0.5932566425524515
aF0.9938762699122655
aF0.5487223158621709
aa(lp43
a(lp44
ag0
(g35
g2
Ntp45
Rp46
(lp47
I0
aI413965107
ababag0
(g28
g2
Ntp48
Rp49
(lp50
(lp51
F0.00977826696811388
aF-0.9752796811570756
aF0.9828619077175336
aF1.9506913694737757
aF-0.5207656239232623
aF0.9914320192312691
aF0.5743571836530527
aa(lp52
a(lp53
ag0
(g35
g2
Ntp54
Rp55
(lp56
I0
aI727930214
ababag0
(g28
g2
Ntp57
Rp58
(lp59
(lp60
F-0.03748794627634481
aF-0.9795238265055108
aF0.8980913287851626
aF1.9653815868949898
aF-0.4482746052940732
aF0.9889877685502728
aF0.5999920514439344
aa(lp61
a(lp62
ag0
(g35
g2
Ntp63
Rp64
(lp65
I1
aI41895320
ababag0
(g28
g2
Ntp66
Rp67
(lp68
(lp69
F-0.0847541595208035
aF-0.9837679718539462
aF0.8133207498527917
aF1.9800718043162038
aF-0.37578358666488404
aF0.9865435178692764
aF0.6256269192348162
aa(lp70
a(lp71
ag0
(g35
g2
Ntp72
Rp73
(lp74
I1
aI355860427
ababag0
(g28
g2
Ntp75
Rp76
(lp77
(lp78
F-0.13202037276526218
aF-0.9880121172023814
aF0.7285501709204207
aF1.994762021737418
aF-0.3032925680356949
aF0.9840992671882801
aF0.6512617870256979
aa(lp79
a(lp80
ag0
(g35
g2
Ntp81
Rp82
(lp83
I1
aI669825535
ababag0
(g28
g2
Ntp84
Rp85
(lp86
(lp87
F-0.17928658600972086
aF-0.9922562625508167
aF0.6437795919880498
aF2.009452239158632
aF-0.23080154940650574
aF0.9816550165072837
aF0.6768966548165797
aa(lp88
a(lp89
ag0
(g35
g2
Ntp90
Rp91
(lp92
I1
aI983790642
ababag0
(g28
g2
Ntp93
Rp94
(lp95
(lp96
F-0.22655279925417954
aF-0.9965004078992519
aF0.559009013055679
aF2.024142456579846
aF-0.15831053077731663
aF0.9792107658262874
aF0.7025315226074614
aa(lp97
a(lp98
ag0
(g35
g2
Ntp99
Rp100
(lp101
I2
aI297755749
ababag0
(g28
g2
Ntp102
Rp103
(lp104
(lp105
F-0.27381901249863827
aF-1.000744553247687
aF0.47423843412330796
aF2.03883267400106
aF-0.08581951214812744
aF0.9767665151452911
aF0.7281663903983432
aa(lp106
a(lp107
ag0
(g35
g2
Ntp108
Rp109
(lp110
I2
aI611720856
ababag0
(g28
g2
Ntp111
Rp112
(lp113
(lp114
F-0.3210852257430969
aF-1.0049886985961223
aF0.3894678551909371
aF2.0535228914222743
aF-0.013328493518938337
aF0.9743222644642947
aF0.7538012581892249
aa(lp115
a(lp116
ag0
(g35
g2
Ntp117
Rp118
(lp119
I2
aI925685963
ababag0
(g28
g2
Ntp120
Rp121
(lp122
(lp123
F-0.3683514389875556
aF-1.0092328439445577
aF0.3046972762585661
aF2.068213108843488
aF0.059162525110250865
aF0.9718780137832984
aF0.7794361259801067
aa(lp124
a(lp125
ag0
(g35
g2
Ntp126
Rp127
(lp128
I3
aI239651070
ababag0
(g28
g2
Ntp129
Rp130
(lp131
(lp132
F-0.4156176522320143
aF-1.013476989292993
aF0.2199266973261952
aF2.0829033262647023
aF0.13165354373943997
aF0.969433763102302
aF0.8050709937709885
aa(lp133
a(lp134
ag0
(g35
g2
Ntp135
Rp136
(lp137
I3
aI553616178
ababag0
(g28
g2
Ntp138
Rp139
(lp140
(lp141
F-0.462883865476473
aF-1.017721134641428
aF0.1351561183938242
aF2.097593543685916
aF0.20414456236862916
aF0.9669895124213057
aF0.8307058615618702
aa(lp142
a(lp143
ag0
(g35
g2
Ntp144
Rp145
(lp146
I3
aI867581285
ababag0
(g28
g2
Ntp147
Rp148
(lp149
(lp150
F-0.5101500787209317
aF-1.0219652799898633
aF0.0503855394614533
aF2.1122837611071303
aF0.27663558099781826
aF0.9645452617403094
aF0.8563407293527519
aa(lp151
a(lp152
ag0
(g35
g2
Ntp153
Rp154
(lp155
I4
aI181546392
ababag0
(g28
g2
Ntp156
Rp157
(lp158
(lp159
F-0.5574162919653903
aF-1.0262094253382985
aF-0.03438503947091758
aF2.126973978528344
aF0.3491265996270074
aF0.962101011059313
aF0.8819755971436336
aa(lp160
a(lp161
ag0
(g35
g2
Ntp162
Rp163
(lp164
I4
aI495511500
ababag0
(g28
g2
Ntp165
Rp166
(lp167
(lp168
F-0.604682505209849
aF-1.030453570686734
aF-0.11915561840328846
aF2.1416641959495584
aF0.4216176182561965
aF0.9596567603783167
aF0.9076104649345154
aa(lp169
a(lp170
ag0
(g35
g2
Ntp171
Rp172
(lp173
I4
aI809476606
ababag0
(g28
g2
Ntp174
Rp175
(lp176
(lp177
F-0.6519487184543078
aF-1.0346977160351691
aF-0.2039261973356596
aF2.156354413370772
aF0.49410863688538575
aF0.9572125096973203
aF0.9332453327253972
aa(lp178
a(lp179
ag0
(g35
g2
Ntp180
Rp181
(lp182
I5
aI123441714
ababag0
(g28
g2
Ntp183
Rp184
(lp185
(lp186
F-0.6992149316987664
aF-1.0389418613836043
aF-0.2886967762680305
aF2.1710446307919864
aF0.5665996555145749
aF0.954768259016324
aF0.9588802005162789
aa(lp187
a(lp188
ag0
(g35
g2
Ntp189
Rp190
(lp191
I5
aI437406820
ababag0
(g28
g2
Ntp192
Rp193
(lp194
(lp195
F-0.746481144943225
aF-1.0431860067320395
aF-0.37346735520040136
aF2.1857348482132006
aF0.639090674143764
aF0.9523240083353276
aF0.9845150683071606
aa(lp196
a(lp197
ag0
(g35
g2
Ntp198
Rp199
(lp200
I5
aI751371928
ababag0
(g28
g2
Ntp201
Rp202
(lp203
(lp204
F-0.7937473581876837
aF-1.0474301520804747
aF-0.4582379341327722
aF2.2004250656344144
aF0.711581692772953
aF0.9498797576543313
aF1.0101499360980424
aa(lp205
a(lp206
ag0
(g35
g2
Ntp207
Rp208
(lp209
I6
aI65337034
ababag0
(g28
g2
Ntp210
Rp211
(lp212
(lp213
F-0.8410135714321425
aF-1.0516742974289102
aF-0.5430085130651433
aF2.2151152830556287
aF0.7840727114021424
aF0.947435506973335
aF1.0357848038889241
aa(lp214
a(lp215
ag0
(g35
g2
Ntp216
Rp217
(lp218
I6
aI379302143
ababag0
(g28
g2
Ntp219
Rp220
(lp221
(lp222
F-0.8882797846766012
aF-1.0559184427773454
aF-0.6277790919975142
aF2.2298055004768425
aF0.8565637300313315
aF0.9449912562923386
aF1.0614196716798059
aa(lp223
a(lp224
ag0
(g35
g2
Ntp225
Rp226
(lp227
I6
aI693267249
ababag0
(g28
g2
Ntp228
Rp229
(lp230
(lp231
F-0.9355459979210599
aF-1.0601625881257806
aF-0.7125496709298851
aF2.2444957178980567
aF0.9290547486605205
aF0.9425470056113423
aF1.0870545394706876
aa(lp232
a(lp233
ag0
(g35
g2
Ntp234
Rp235
(lp236
I7
aI7232357
ababag0
(g28
g2
Ntp237
Rp238
(lp239
(lp240
F-0.9828122111655184
aF-1.0644067334742158
aF-0.797320249862256
aF2.2591859353192705
aF1.0015457672897097
aF0.9401027549303459
aF1.1126894072615694
aa(lp241
a(lp242
ag0
(g35
g2
Ntp243
Rp244
(lp245
I7
aI321197463
ababag0
(g28
g2
Ntp246
Rp247
(lp248
(lp249
F-1.0300784244099772
aF-1.0686508788226512
aF-0.8820908287946271
aF2.2738761527404847
aF1.074036785918899
aF0.9376585042493496
aF1.1383242750524512
aa(lp250
a(lp251
ag0
(g35
g2
Ntp252
Rp253
(lp254
I7
aI635162571
ababag0
(g28
g2
Ntp255
Rp256
(lp257
(lp258
F-1.077344637654436
aF-1.0728950241710864
aF-0.966861407726998
aF2.2885663701616985
aF1.146527804548088
aF0.9352142535683532
aF1.163959142843333
aa(lp259
a(lp260
ag0
(g35
g2
Ntp261
Rp262
(lp263
I7
aI949127678
ababag0
(g28
g2
Ntp264
Rp265
(lp266
(lp267
F-1.1246108508988946
aF-1.0771391695195216
aF-1.0516319866593689
aF2.3032565875829127
aF1.2190188231772772
aF0.9327700028873569
aF1.1895940106342147
aa(lp268
a(lp269
ag0
(g35
g2
Ntp270
Rp271
(lp272
I8
aI533092785
ababaabag0
(cmoveit_msgs.msg._MultiDOFJointTrajectory
MultiDOFJointTrajectory
p273
g2
Ntp274
Rp275
(lp276
g0
(g10
g2
Ntp277
Rp278
(lp279
I0
ag0
(g14
g2
Ntp280
Rp281
(lp282
I0
aI0
abaS''
p283
abag19
a(lp284
abab.