ccopy_reg
_reconstructor
p0
(cmoveit_msgs.msg._RobotTrajectory
RobotTrajectory
p1
c__builtin__
object
p2
Ntp3
Rp4
(lp5
g0
(ctrajectory_msgs.msg._JointTrajectory
JointTrajectory
p6
g2
Ntp7
Rp8
(lp9
g0
(cstd_msgs.msg._Header
Header
p10
g2
Ntp11
Rp12
(lp13
I0
ag0
(cgenpy.rostime
Time
p14
g2
Ntp15
Rp16
(lp17
I0
aI0
abaS'/base'
p18
aba(lp19
S'right_s0'
p20
aS'right_s1'
p21
aS'right_e0'
p22
aS'right_e1'
p23
aS'right_w0'
p24
aS'right_w1'
p25
aS'right_w2'
p26
aa(lp27
g0
(ctrajectory_msgs.msg._JointTrajectoryPoint
JointTrajectoryPoint
p28
g2
Ntp29
Rp30
(lp31
(lp32
F-1.334872502912424
aF-0.38950477479793666
aF-1.2843412683754494
aF1.5687451779604988
aF1.5657252361281027
aF1.4962010547746274
aF1.3794454266700542
aa(lp33
a(lp34
ag0
(cgenpy.rostime
Duration
p35
g2
Ntp36
Rp37
(lp38
I0
aI0
ababag0
(g28
g2
Ntp39
Rp40
(lp41
(lp42
F-1.333161941151175
aF-0.3816362174687736
aF-1.2753685987053915
aF1.568087647427058
aF1.5743764054105889
aF1.4862656896342474
aF1.3778597944249489
aa(lp43
a(lp44
ag0
(g35
g2
Ntp45
Rp46
(lp47
I0
aI200000001
ababag0
(g28
g2
Ntp48
Rp49
(lp50
(lp51
F-1.3315507059263405
aF-0.37370948561246287
aF-1.2663697439241497
aF1.5670713400851377
aF1.5830349246087838
aF1.4763471277500517
aF1.3763708732505082
aa(lp52
a(lp53
ag0
(g35
g2
Ntp54
Rp55
(lp56
I0
aI400000000
ababag0
(g28
g2
Ntp57
Rp58
(lp59
(lp60
F-1.3300371892194052
aF-0.36572339143222543
aF-1.2573505376906686
aF1.5656952360749694
aF1.5916941743945674
aF1.4664437956495253
aF1.3749799084552268
aa(lp61
a(lp62
ag0
(g35
g2
Ntp63
Rp64
(lp65
I0
aI600000000
ababag0
(g28
g2
Ntp66
Rp67
(lp68
(lp69
F-1.3286198831875267
aF-0.35767673310600223
aF-1.2483167667745048
aF1.5639582550879985
aF1.6003475083369978
aF1.4565540806902286
aF1.373688259128951
aa(lp70
a(lp71
ag0
(g35
g2
Ntp72
Rp73
(lp74
I0
aI800000000
ababag0
(g28
g2
Ntp75
Rp76
(lp77
(lp78
F-1.3272973814345783
aF-0.3495682930874268
aF-1.2392741668255791
aF1.5618592527765613
aF1.6089882547392997
aF1.4466763316929947
aF1.3724973994450695
aa(lp79
a(lp80
ag0
(g35
g2
Ntp81
Rp82
(lp83
I1
aI0
ababag0
(g28
g2
Ntp84
Rp85
(lp86
(lp87
F-1.3260683804714735
aF-0.34139683602011084
aF-1.2302284183776784
aF1.5593970163482913
aF1.6176097183970837
aF1.4368088597147182
aF1.3714089206037812
aa(lp88
a(lp89
ag0
(g35
g2
Ntp90
Rp91
(lp92
I1
aI200000002
ababag0
(g28
g2
Ntp93
Rp94
(lp95
(lp96
F-1.3249316813591752
aF-0.3331611062522578
aF-1.2211851431423473
aF1.5565702593142958
aF1.6262051822095185
aF1.4269499389521882
aF1.3704245334563214
aa(lp97
a(lp98
ag0
(g35
g2
Ntp99
Rp100
(lp101
I1
aI400000001
ababag0
(g28
g2
Ntp102
Rp103
(lp104
(lp105
F-1.3238861915304283
aF-0.32485982493802545
aF-1.2121499006499128
aF1.5533776153563235
aF1.6347679085739903
aF1.4170978077672132
aF1.3695460718544052
aa(lp106
a(lp107
ag0
(g35
g2
Ntp108
Rp109
(lp110
I1
aI600000001
ababag0
(g28
g2
Ntp111
Rp112
(lp113
(lp114
F-1.322930926789119
aF-0.31649168671120115
aF-1.2031281852945097
aF1.5498176312738459
aF1.6432911404935828
aF1.4072506698222607
aF1.3687754967738555
aa(lp115
a(lp116
ag0
(g35
g2
Ntp117
Rp118
(lp119
I1
aI800000001
ababag0
(g28
g2
Ntp120
Rp121
(lp122
(lp123
F-1.3220650134893115
aF-0.3080553559155501
aF-1.1941254238401702
aF1.5458887589669819
aF1.6517681023256063
aF1.3974066953148803
aF1.368114901266563
aa(lp124
a(lp125
ag0
(g35
g2
Ntp126
Rp127
(lp128
I2
aI1
ababag0
(g28
g2
Ntp129
Rp130
(lp131
(lp132
F-1.3212876908994242
aF-0.29954946237462693
aF-1.1851469734454199
aF1.5415893464055141
aF1.6601920000982149
aF1.387564022298432
aF1.3675665163006556
aa(lp133
a(lp134
ag0
(g35
g2
Ntp135
Rp136
(lp137
I2
aI200000001
ababag0
(g28
g2
Ntp138
Rp139
(lp140
(lp141
F-1.3205983137607316
aF-0.29097259668182984
aF-1.176198120264432
aF1.536917627527624
aF1.6685560213209325
aF1.377720758076
aF1.3671327175551715
aa(lp142
a(lp143
ag0
(g35
g2
Ntp144
Rp145
(lp146
I2
aI400000001
ababag0
(g28
g2
Ntp147
Rp148
(lp149
(lp150
F-1.3199963550534624
aF-0.282323304988956
aF-1.1672840786837682
aF1.5318717110043363
aF1.676853334213528
aF1.3678749806539385
aF1.366816033242792
aa(lp151
a(lp152
ag0
(g35
g2
Ntp153
Rp154
(lp155
I2
aI600000000
ababag0
(g28
g2
Ntp156
Rp157
(lp158
(lp159
F-1.3194814089882425
aF-0.2736000832684218
aF-1.1584099912551722
aF1.526449567796752
aF1.6850770862761144
aF1.3580247402411643
aF1.3666191530424483
aa(lp160
a(lp161
ag0
(g35
g2
Ntp162
Rp163
(lp164
I2
aI800000000
ababag0
(g28
g2
Ntp165
Rp166
(lp167
(lp168
F-1.3190531942455155
aF-0.26480137102056883
aF-1.1495809293869221
aF1.5206490174228617
aF1.6932204021214639
aF1.348168060780185
aF1.3665449382330626
aa(lp169
a(lp170
ag0
(g35
g2
Ntp171
Rp172
(lp173
I3
aI0
ababag0
(g28
g2
Ntp174
Rp175
(lp176
(lp177
F-1.318711557491045
aF-0.2559255443929788
aF-1.1408018948590517
aF1.5144677128386657
aF1.701276380488223
aF1.3383029414958516
aF1.3665964331305769
aa(lp178
a(lp179
ag0
(g35
g2
Ntp180
Rp181
(lp182
I3
aI200000000
ababag0
(g28
g2
Ntp183
Rp184
(lp185
(lp186
F-1.3184564856811525
aF-0.24697090656738283
aF-1.1320778201660158
aF1.5079031127685547
aF1.7092380909484863
aF1.3284273607910158
aF1.366776880444336
aa(lp187
a(lp188
ag0
(g35
g2
Ntp189
Rp190
(lp191
I3
aI400000000
ababaabag0
(cmoveit_msgs.msg._MultiDOFJointTrajectory
MultiDOFJointTrajectory
p192
g2
Ntp193
Rp194
(lp195
g0
(g10
g2
Ntp196
Rp197
(lp198
I0
ag0
(g14
g2
Ntp199
Rp200
(lp201
I0
aI0
abaS''
p202
abag19
a(lp203
abab.