ccopy_reg
_reconstructor
p0
(cmoveit_msgs.msg._RobotTrajectory
RobotTrajectory
p1
c__builtin__
object
p2
Ntp3
Rp4
(lp5
g0
(ctrajectory_msgs.msg._JointTrajectory
JointTrajectory
p6
g2
Ntp7
Rp8
(lp9
g0
(cstd_msgs.msg._Header
Header
p10
g2
Ntp11
Rp12
(lp13
I0
ag0
(cgenpy.rostime
Time
p14
g2
Ntp15
Rp16
(lp17
I0
aI0
abaS'/base'
p18
aba(lp19
S'right_s0'
p20
aS'right_s1'
p21
aS'right_e0'
p22
aS'right_e1'
p23
aS'right_w0'
p24
aS'right_w1'
p25
aS'right_w2'
p26
aa(lp27
g0
(ctrajectory_msgs.msg._JointTrajectoryPoint
JointTrajectoryPoint
p28
g2
Ntp29
Rp30
(lp31
(lp32
F-1.1374467529174805
aF-0.6320000838867188
aF-0.9046651686218262
aF1.896767242053223
aF1.5293788437744142
aF1.012043823651123
aF1.3219079424499514
aa(lp33
a(lp34
ag0
(cgenpy.rostime
Duration
p35
g2
Ntp36
Rp37
(lp38
I0
aI200000000
ababag0
(g28
g2
Ntp39
Rp40
(lp41
(lp42
F-1.133599414533305
aF-0.645363766192039
aF-0.9170417639962815
aF1.9051728560532202
aF1.5161746589152134
aF1.0185609699181872
aF1.3250104549244592
aa(lp43
a(lp44
ag0
(g35
g2
Ntp45
Rp46
(lp47
I0
aI400000000
ababag0
(g28
g2
Ntp48
Rp49
(lp50
(lp51
F-1.1296606567733547
aF-0.6586562952426196
aF-0.9296295866180722
aF1.9131614001409059
aF1.5027220111408421
aF1.0251201728430337
aF1.3283428908950214
aa(lp52
a(lp53
ag0
(g35
g2
Ntp54
Rp55
(lp56
I0
aI600000000
ababag0
(g28
g2
Ntp57
Rp58
(lp59
(lp60
F-1.1256267962025854
aF-0.6718753470168366
aF-0.9424272931370116
aF1.920731391489534
aF1.4890317961136368
aF1.0317278720639562
aF1.3319000639459633
aa(lp61
a(lp62
ag0
(g35
g2
Ntp63
Rp64
(lp65
I0
aI800000000
ababag0
(g28
g2
Ntp66
Rp67
(lp68
(lp69
F-1.1214943153625174
aF-0.6850183362114205
aF-0.9554331945870057
aF1.9278812678358055
aF1.4751153734284224
aF1.0383906307913287
aF1.3356765830669857
aa(lp70
a(lp71
ag0
(g35
g2
Ntp72
Rp73
(lp74
I1
aI0
ababag0
(g28
g2
Ntp75
Rp76
(lp77
(lp78
F-1.1172598624391592
aF-0.698082440924743
aF-0.9686452545534863
aF1.93460942566783
aF1.4609845663887897
aF1.045115103180178
aF1.3396668420743
aa(lp79
a(lp80
ag0
(g35
g2
Ntp81
Rp82
(lp83
I1
aI199999999
ababag0
(g28
g2
Ntp84
Rp85
(lp86
(lp87
F-1.1129202733265826
aF-0.7110646127413183
aF-0.9820610715899909
aF1.9409142447290009
aF1.446651668380311
aF1.051908013891354
aF1.3438649991132654
aa(lp88
a(lp89
ag0
(g35
g2
Ntp90
Rp91
(lp92
I1
aI399999999
ababag0
(g28
g2
Ntp93
Rp94
(lp95
(lp96
F-1.1084725945102458
aF-0.7239615869996125
aF-0.9956778633093359
aF1.9467941121172663
aF1.432129445428206
aF1.0587761370743458
aF1.3482649590631368
aa(lp97
a(lp98
ag0
(g35
g2
Ntp99
Rp100
(lp101
I1
aI599999999
ababag0
(g28
g2
Ntp102
Rp103
(lp104
(lp105
F-1.1039141067286726
aF-0.7367698932092727
aF-1.0094924522759599
aF1.952247445940675
aF1.4174311348459472
aF1.0657262749139662
aF1.3528603588910757
aa(lp106
a(lp107
ag0
(g35
g2
Ntp108
Rp109
(lp110
I1
aI799999999
ababag0
(g28
g2
Ntp111
Rp112
(lp113
(lp114
F-1.099242349374556
aF-0.7494858655750135
aF-1.0235012538102417
aF1.9572727184793433
aF1.4025704399147991
aF1.072765235897851
aF1.357644555984964
aa(lp115
a(lp116
ag0
(g35
g2
Ntp117
Rp118
(lp119
I1
aI999999999
ababag0
(g28
g2
Ntp120
Rp121
(lp122
(lp123
F-1.0944551456013767
aF-0.762105653578802
aF-1.0377002657932062
aF1.9618684787949956
aF1.3875615205704346
aF1.0798998129725241
aF1.3626106194740757
aa(lp124
a(lp125
ag0
(g35
g2
Ntp126
Rp127
(lp128
I2
aI199999999
ababag0
(g28
g2
Ntp129
Rp130
(lp131
(lp132
F-1.0895506281090794
aF-0.7746252325702523
aF-1.052085060531117
aF1.9660333747222976
aF1.3724189801108475
aF1.0871367617618994
aF1.3677513245240505
aa(lp133
a(lp134
ag0
(g35
g2
Ntp135
Rp136
(lp137
I2
aI399999998
ababag0
(g28
g2
Ntp138
Rp139
(lp140
(lp141
F-1.0845272655920268
aF-0.7870404143178387
aF-1.066650778704336
aF1.9697661741711612
aF1.3571578479783866
aF1.0944827790233038
aF1.3730591495691413
aa(lp142
a(lp143
ag0
(g35
g2
Ntp144
Rp145
(lp146
I2
aI600000000
ababag0
(g28
g2
Ntp147
Rp148
(lp149
(lp150
F-1.079383889843917
aF-0.7993468574811794
aF-1.0813921253840328
aF1.9730657856662366
aF1.341793558706816
aF1.1019444815118795
aF1.378526276421332
aa(lp151
a(lp152
ag0
(g35
g2
Ntp153
Rp154
(lp155
I2
aI800000000
ababag0
(g28
g2
Ntp156
Rp157
(lp158
(lp159
F-1.074119723527128
aF-0.811540077977669
aF-1.0963033680545426
aF1.9759312780486993
aF1.3263419271603374
aF1.1095283854145652
aF1.3841445931738938
aa(lp160
a(lp161
ag0
(g35
g2
Ntp162
Rp163
(lp164
I3
aI0
ababag0
(g28
g2
Ntp165
Rp166
(lp167
(lp168
F-1.0687344086271522
aF-0.8236154592355653
aF-1.1113783365294778
aF1.9783618992662348
aF1.31081912022416
aF1.1172408864995114
aF1.3899056997974404
aa(lp169
a(lp170
ag0
(g35
g2
Ntp171
Rp172
(lp173
I3
aI200000000
ababag0
(g28
g2
Ntp174
Rp175
(lp176
(lp177
F-1.063228035625488
aF-0.8355682623505075
aF-1.1266104245972988
aF1.9803570941794255
aF1.2952416251339092
aF1.1250882411060286
aF1.3958009163108487
aa(lp178
a(lp179
ag0
(g35
g2
Ntp180
Rp181
(lp182
I3
aI399999999
ababag0
(g28
g2
Ntp183
Rp184
(lp185
(lp186
F-1.0576011734352748
aF-0.8473936361935519
aF-1.1419925931784598
aF1.9819165213164334
aF1.2796262146526662
aF1.133076548074097
aF1.4018212933985472
aa(lp187
a(lp188
ag0
(g35
g2
Ntp189
Rp190
(lp191
I3
aI600000000
ababaabag0
(cmoveit_msgs.msg._MultiDOFJointTrajectory
MultiDOFJointTrajectory
p192
g2
Ntp193
Rp194
(lp195
g0
(g10
g2
Ntp196
Rp197
(lp198
I0
ag0
(g14
g2
Ntp199
Rp200
(lp201
I0
aI0
abaS''
p202
abag19
a(lp203
abab.